; Listing generated by Microsoft (R) Optimizing Compiler Version 19.34.31937.0 

include listing.inc

INCLUDELIB LIBCMT
INCLUDELIB OLDNAMES

PUBLIC	stbi_write_tga_with_rle
PUBLIC	stbi_write_png_compression_level
PUBLIC	stbi_write_force_png_filter
PUBLIC	rx_ps_shader_bytecode
PUBLIC	rx_vs_shader_bytecode
_TLS	SEGMENT
cc	DW	07H
	ORG $+4502
_TLS	ENDS
_DATA	SEGMENT
stbi_write_tga_with_rle DD 01H
stbi_write_png_compression_level DD 08H
stbi_write_force_png_filter DD 0ffffffffH
$SG106345 DB	'none', 00H
	ORG $+7
$SG106346 DB	'not in table', 00H
	ORG $+3
$SG106347 DB	'already in table', 00H
_DATA	ENDS
CONST	SEGMENT
?tag@?O@??stbi__process_marker@@9@9 DB 04aH		; `stbi__process_marker'::`14'::tag
	DB	046H
	DB	049H
	DB	046H
	DB	00H
	ORG $+3
?tag@?BA@??stbi__process_marker@@9@9 DB 041H		; `stbi__process_marker'::`16'::tag
	DB	064H
	DB	06fH
	DB	062H
	DB	065H
	DB	00H
	ORG $+2
?rgb@?5??stbi__process_frame_header@@9@9 DB 052H	; `stbi__process_frame_header'::`6'::rgb
	DB	047H
	DB	042H
	ORG $+5
?length_dezigzag@?1??stbi__compute_huffman_codes@@9@9 DB 010H ; `stbi__compute_huffman_codes'::`2'::length_dezigzag
	DB	011H
	DB	012H
	DB	00H
	DB	08H
	DB	07H
	DB	09H
	DB	06H
	DB	0aH
	DB	05H
	DB	0bH
	DB	04H
	DB	0cH
	DB	03H
	DB	0dH
	DB	02H
	DB	0eH
	DB	01H
	DB	0fH
	ORG $+5
stbi__zlength_base DD 03H
	DD	04H
	DD	05H
	DD	06H
	DD	07H
	DD	08H
	DD	09H
	DD	0aH
	DD	0bH
	DD	0dH
	DD	0fH
	DD	011H
	DD	013H
	DD	017H
	DD	01bH
	DD	01fH
	DD	023H
	DD	02bH
	DD	033H
	DD	03bH
	DD	043H
	DD	053H
	DD	063H
	DD	073H
	DD	083H
	DD	0a3H
	DD	0c3H
	DD	0e3H
	DD	0102H
	DD	00H
	DD	00H
	ORG $+4
stbi__zlength_extra DD 00H
	DD	00H
	DD	00H
	DD	00H
	DD	00H
	DD	00H
	DD	00H
	DD	00H
	DD	01H
	DD	01H
	DD	01H
	DD	01H
	DD	02H
	DD	02H
	DD	02H
	DD	02H
	DD	03H
	DD	03H
	DD	03H
	DD	03H
	DD	04H
	DD	04H
	DD	04H
	DD	04H
	DD	05H
	DD	05H
	DD	05H
	DD	05H
	DD	00H
	DD	00H
	DD	00H
	ORG $+4
stbi__zdist_base DD 01H
	DD	02H
	DD	03H
	DD	04H
	DD	05H
	DD	07H
	DD	09H
	DD	0dH
	DD	011H
	DD	019H
	DD	021H
	DD	031H
	DD	041H
	DD	061H
	DD	081H
	DD	0c1H
	DD	0101H
	DD	0181H
	DD	0201H
	DD	0301H
	DD	0401H
	DD	0601H
	DD	0801H
	DD	0c01H
	DD	01001H
	DD	01801H
	DD	02001H
	DD	03001H
	DD	04001H
	DD	06001H
	DD	00H
	DD	00H
stbi__zdist_extra DD 00H
	DD	00H
	DD	00H
	DD	00H
	DD	01H
	DD	01H
	DD	02H
	DD	02H
	DD	03H
	DD	03H
	DD	04H
	DD	04H
	DD	05H
	DD	05H
	DD	06H
	DD	06H
	DD	07H
	DD	07H
	DD	08H
	DD	08H
	DD	09H
	DD	09H
	DD	0aH
	DD	0aH
	DD	0bH
	DD	0bH
	DD	0cH
	DD	0cH
	DD	0dH
	DD	0dH
	ORG $+8
stbi__zdefault_length DB 08H
	DB	08H
	DB	08H
	DB	08H
	DB	08H
	DB	08H
	DB	08H
	DB	08H
	DB	08H
	DB	08H
	DB	08H
	DB	08H
	DB	08H
	DB	08H
	DB	08H
	DB	08H
	DB	08H
	DB	08H
	DB	08H
	DB	08H
	DB	08H
	DB	08H
	DB	08H
	DB	08H
	DB	08H
	DB	08H
	DB	08H
	DB	08H
	DB	08H
	DB	08H
	DB	08H
	DB	08H
	DB	08H
	DB	08H
	DB	08H
	DB	08H
	DB	08H
	DB	08H
	DB	08H
	DB	08H
	DB	08H
	DB	08H
	DB	08H
	DB	08H
	DB	08H
	DB	08H
	DB	08H
	DB	08H
	DB	08H
	DB	08H
	DB	08H
	DB	08H
	DB	08H
	DB	08H
	DB	08H
	DB	08H
	DB	08H
	DB	08H
	DB	08H
	DB	08H
	DB	08H
	DB	08H
	DB	08H
	DB	08H
	DB	08H
	DB	08H
	DB	08H
	DB	08H
	DB	08H
	DB	08H
	DB	08H
	DB	08H
	DB	08H
	DB	08H
	DB	08H
	DB	08H
	DB	08H
	DB	08H
	DB	08H
	DB	08H
	DB	08H
	DB	08H
	DB	08H
	DB	08H
	DB	08H
	DB	08H
	DB	08H
	DB	08H
	DB	08H
	DB	08H
	DB	08H
	DB	08H
	DB	08H
	DB	08H
	DB	08H
	DB	08H
	DB	08H
	DB	08H
	DB	08H
	DB	08H
	DB	08H
	DB	08H
	DB	08H
	DB	08H
	DB	08H
	DB	08H
	DB	08H
	DB	08H
	DB	08H
	DB	08H
	DB	08H
	DB	08H
	DB	08H
	DB	08H
	DB	08H
	DB	08H
	DB	08H
	DB	08H
	DB	08H
	DB	08H
	DB	08H
	DB	08H
	DB	08H
	DB	08H
	DB	08H
	DB	08H
	DB	08H
	DB	08H
	DB	08H
	DB	08H
	DB	08H
	DB	08H
	DB	08H
	DB	08H
	DB	08H
	DB	08H
	DB	08H
	DB	08H
	DB	08H
	DB	08H
	DB	08H
	DB	08H
	DB	08H
	DB	08H
	DB	09H
	DB	09H
	DB	09H
	DB	09H
	DB	09H
	DB	09H
	DB	09H
	DB	09H
	DB	09H
	DB	09H
	DB	09H
	DB	09H
	DB	09H
	DB	09H
	DB	09H
	DB	09H
	DB	09H
	DB	09H
	DB	09H
	DB	09H
	DB	09H
	DB	09H
	DB	09H
	DB	09H
	DB	09H
	DB	09H
	DB	09H
	DB	09H
	DB	09H
	DB	09H
	DB	09H
	DB	09H
	DB	09H
	DB	09H
	DB	09H
	DB	09H
	DB	09H
	DB	09H
	DB	09H
	DB	09H
	DB	09H
	DB	09H
	DB	09H
	DB	09H
	DB	09H
	DB	09H
	DB	09H
	DB	09H
	DB	09H
	DB	09H
	DB	09H
	DB	09H
	DB	09H
	DB	09H
	DB	09H
	DB	09H
	DB	09H
	DB	09H
	DB	09H
	DB	09H
	DB	09H
	DB	09H
	DB	09H
	DB	09H
	DB	09H
	DB	09H
	DB	09H
	DB	09H
	DB	09H
	DB	09H
	DB	09H
	DB	09H
	DB	09H
	DB	09H
	DB	09H
	DB	09H
	DB	09H
	DB	09H
	DB	09H
	DB	09H
	DB	09H
	DB	09H
	DB	09H
	DB	09H
	DB	09H
	DB	09H
	DB	09H
	DB	09H
	DB	09H
	DB	09H
	DB	09H
	DB	09H
	DB	09H
	DB	09H
	DB	09H
	DB	09H
	DB	09H
	DB	09H
	DB	09H
	DB	09H
	DB	09H
	DB	09H
	DB	09H
	DB	09H
	DB	09H
	DB	09H
	DB	09H
	DB	09H
	DB	09H
	DB	09H
	DB	09H
	DB	09H
	DB	07H
	DB	07H
	DB	07H
	DB	07H
	DB	07H
	DB	07H
	DB	07H
	DB	07H
	DB	07H
	DB	07H
	DB	07H
	DB	07H
	DB	07H
	DB	07H
	DB	07H
	DB	07H
	DB	07H
	DB	07H
	DB	07H
	DB	07H
	DB	07H
	DB	07H
	DB	07H
	DB	07H
	DB	08H
	DB	08H
	DB	08H
	DB	08H
	DB	08H
	DB	08H
	DB	08H
	DB	08H
stbi__zdefault_distance DB 05H
	DB	05H
	DB	05H
	DB	05H
	DB	05H
	DB	05H
	DB	05H
	DB	05H
	DB	05H
	DB	05H
	DB	05H
	DB	05H
	DB	05H
	DB	05H
	DB	05H
	DB	05H
	DB	05H
	DB	05H
	DB	05H
	DB	05H
	DB	05H
	DB	05H
	DB	05H
	DB	05H
	DB	05H
	DB	05H
	DB	05H
	DB	05H
	DB	05H
	DB	05H
	DB	05H
	DB	05H
?png_sig@?1??stbi__check_png_header@@9@9 DB 089H	; `stbi__check_png_header'::`2'::png_sig
	DB	050H
	DB	04eH
	DB	047H
	DB	0dH
	DB	0aH
	DB	01aH
	DB	0aH
stbi__depth_scale_table DB 00H
	DB	0ffH
	DB	055H
	DB	00H
	DB	011H
	DB	00H
	DB	00H
	DB	00H
	DB	01H
	ORG $+7
?std_dc_luminance_nrcodes@?1??stbi_write_jpg_core@@9@9 DB 00H ; `stbi_write_jpg_core'::`2'::std_dc_luminance_nrcodes
	DB	00H
	DB	01H
	DB	05H
	DB	01H
	DB	01H
	DB	01H
	DB	01H
	DB	01H
	DB	01H
	DB	00H
	DB	00H
	DB	00H
	DB	00H
	DB	00H
	DB	00H
	DB	00H
	ORG $+7
stbiw__jpg_ZigZag DB 00H
	DB	01H
	DB	05H
	DB	06H
	DB	0eH
	DB	0fH
	DB	01bH
	DB	01cH
	DB	02H
	DB	04H
	DB	07H
	DB	0dH
	DB	010H
	DB	01aH
	DB	01dH
	DB	02aH
	DB	03H
	DB	08H
	DB	0cH
	DB	011H
	DB	019H
	DB	01eH
	DB	029H
	DB	02bH
	DB	09H
	DB	0bH
	DB	012H
	DB	018H
	DB	01fH
	DB	028H
	DB	02cH
	DB	035H
	DB	0aH
	DB	013H
	DB	017H
	DB	020H
	DB	027H
	DB	02dH
	DB	034H
	DB	036H
	DB	014H
	DB	016H
	DB	021H
	DB	026H
	DB	02eH
	DB	033H
	DB	037H
	DB	03cH
	DB	015H
	DB	022H
	DB	025H
	DB	02fH
	DB	032H
	DB	038H
	DB	03bH
	DB	03dH
	DB	023H
	DB	024H
	DB	030H
	DB	031H
	DB	039H
	DB	03aH
	DB	03eH
	DB	03fH
?std_dc_luminance_values@?1??stbi_write_jpg_core@@9@9 DB 00H ; `stbi_write_jpg_core'::`2'::std_dc_luminance_values
	DB	01H
	DB	02H
	DB	03H
	DB	04H
	DB	05H
	DB	06H
	DB	07H
	DB	08H
	DB	09H
	DB	0aH
	DB	0bH
?fillBits@?L@??stbi_write_jpg_core@@9@9 DW 07fH		; `stbi_write_jpg_core'::`11'::fillBits
	DW	07H
?std_ac_luminance_nrcodes@?1??stbi_write_jpg_core@@9@9 DB 00H ; `stbi_write_jpg_core'::`2'::std_ac_luminance_nrcodes
	DB	00H
	DB	02H
	DB	01H
	DB	03H
	DB	03H
	DB	02H
	DB	04H
	DB	03H
	DB	05H
	DB	05H
	DB	04H
	DB	04H
	DB	00H
	DB	00H
	DB	01H
	DB	07dH
	ORG $+7
?std_dc_chrominance_nrcodes@?1??stbi_write_jpg_core@@9@9 DB 00H ; `stbi_write_jpg_core'::`2'::std_dc_chrominance_nrcodes
	DB	00H
	DB	03H
	DB	01H
	DB	01H
	DB	01H
	DB	01H
	DB	01H
	DB	01H
	DB	01H
	DB	01H
	DB	01H
	DB	00H
	DB	00H
	DB	00H
	DB	00H
	DB	00H
	ORG $+7
?std_ac_luminance_values@?1??stbi_write_jpg_core@@9@9 DB 01H ; `stbi_write_jpg_core'::`2'::std_ac_luminance_values
	DB	02H
	DB	03H
	DB	00H
	DB	04H
	DB	011H
	DB	05H
	DB	012H
	DB	021H
	DB	031H
	DB	041H
	DB	06H
	DB	013H
	DB	051H
	DB	061H
	DB	07H
	DB	022H
	DB	071H
	DB	014H
	DB	032H
	DB	081H
	DB	091H
	DB	0a1H
	DB	08H
	DB	023H
	DB	042H
	DB	0b1H
	DB	0c1H
	DB	015H
	DB	052H
	DB	0d1H
	DB	0f0H
	DB	024H
	DB	033H
	DB	062H
	DB	072H
	DB	082H
	DB	09H
	DB	0aH
	DB	016H
	DB	017H
	DB	018H
	DB	019H
	DB	01aH
	DB	025H
	DB	026H
	DB	027H
	DB	028H
	DB	029H
	DB	02aH
	DB	034H
	DB	035H
	DB	036H
	DB	037H
	DB	038H
	DB	039H
	DB	03aH
	DB	043H
	DB	044H
	DB	045H
	DB	046H
	DB	047H
	DB	048H
	DB	049H
	DB	04aH
	DB	053H
	DB	054H
	DB	055H
	DB	056H
	DB	057H
	DB	058H
	DB	059H
	DB	05aH
	DB	063H
	DB	064H
	DB	065H
	DB	066H
	DB	067H
	DB	068H
	DB	069H
	DB	06aH
	DB	073H
	DB	074H
	DB	075H
	DB	076H
	DB	077H
	DB	078H
	DB	079H
	DB	07aH
	DB	083H
	DB	084H
	DB	085H
	DB	086H
	DB	087H
	DB	088H
	DB	089H
	DB	08aH
	DB	092H
	DB	093H
	DB	094H
	DB	095H
	DB	096H
	DB	097H
	DB	098H
	DB	099H
	DB	09aH
	DB	0a2H
	DB	0a3H
	DB	0a4H
	DB	0a5H
	DB	0a6H
	DB	0a7H
	DB	0a8H
	DB	0a9H
	DB	0aaH
	DB	0b2H
	DB	0b3H
	DB	0b4H
	DB	0b5H
	DB	0b6H
	DB	0b7H
	DB	0b8H
	DB	0b9H
	DB	0baH
	DB	0c2H
	DB	0c3H
	DB	0c4H
	DB	0c5H
	DB	0c6H
	DB	0c7H
	DB	0c8H
	DB	0c9H
	DB	0caH
	DB	0d2H
	DB	0d3H
	DB	0d4H
	DB	0d5H
	DB	0d6H
	DB	0d7H
	DB	0d8H
	DB	0d9H
	DB	0daH
	DB	0e1H
	DB	0e2H
	DB	0e3H
	DB	0e4H
	DB	0e5H
	DB	0e6H
	DB	0e7H
	DB	0e8H
	DB	0e9H
	DB	0eaH
	DB	0f1H
	DB	0f2H
	DB	0f3H
	DB	0f4H
	DB	0f5H
	DB	0f6H
	DB	0f7H
	DB	0f8H
	DB	0f9H
	DB	0faH
	ORG $+6
?std_dc_chrominance_values@?1??stbi_write_jpg_core@@9@9 DB 00H ; `stbi_write_jpg_core'::`2'::std_dc_chrominance_values
	DB	01H
	DB	02H
	DB	03H
	DB	04H
	DB	05H
	DB	06H
	DB	07H
	DB	08H
	DB	09H
	DB	0aH
	DB	0bH
	ORG $+4
?std_ac_chrominance_nrcodes@?1??stbi_write_jpg_core@@9@9 DB 00H ; `stbi_write_jpg_core'::`2'::std_ac_chrominance_nrcodes
	DB	00H
	DB	02H
	DB	01H
	DB	02H
	DB	04H
	DB	04H
	DB	03H
	DB	04H
	DB	07H
	DB	05H
	DB	04H
	DB	04H
	DB	00H
	DB	01H
	DB	02H
	DB	077H
	ORG $+7
?std_ac_chrominance_values@?1??stbi_write_jpg_core@@9@9 DB 00H ; `stbi_write_jpg_core'::`2'::std_ac_chrominance_values
	DB	01H
	DB	02H
	DB	03H
	DB	011H
	DB	04H
	DB	05H
	DB	021H
	DB	031H
	DB	06H
	DB	012H
	DB	041H
	DB	051H
	DB	07H
	DB	061H
	DB	071H
	DB	013H
	DB	022H
	DB	032H
	DB	081H
	DB	08H
	DB	014H
	DB	042H
	DB	091H
	DB	0a1H
	DB	0b1H
	DB	0c1H
	DB	09H
	DB	023H
	DB	033H
	DB	052H
	DB	0f0H
	DB	015H
	DB	062H
	DB	072H
	DB	0d1H
	DB	0aH
	DB	016H
	DB	024H
	DB	034H
	DB	0e1H
	DB	025H
	DB	0f1H
	DB	017H
	DB	018H
	DB	019H
	DB	01aH
	DB	026H
	DB	027H
	DB	028H
	DB	029H
	DB	02aH
	DB	035H
	DB	036H
	DB	037H
	DB	038H
	DB	039H
	DB	03aH
	DB	043H
	DB	044H
	DB	045H
	DB	046H
	DB	047H
	DB	048H
	DB	049H
	DB	04aH
	DB	053H
	DB	054H
	DB	055H
	DB	056H
	DB	057H
	DB	058H
	DB	059H
	DB	05aH
	DB	063H
	DB	064H
	DB	065H
	DB	066H
	DB	067H
	DB	068H
	DB	069H
	DB	06aH
	DB	073H
	DB	074H
	DB	075H
	DB	076H
	DB	077H
	DB	078H
	DB	079H
	DB	07aH
	DB	082H
	DB	083H
	DB	084H
	DB	085H
	DB	086H
	DB	087H
	DB	088H
	DB	089H
	DB	08aH
	DB	092H
	DB	093H
	DB	094H
	DB	095H
	DB	096H
	DB	097H
	DB	098H
	DB	099H
	DB	09aH
	DB	0a2H
	DB	0a3H
	DB	0a4H
	DB	0a5H
	DB	0a6H
	DB	0a7H
	DB	0a8H
	DB	0a9H
	DB	0aaH
	DB	0b2H
	DB	0b3H
	DB	0b4H
	DB	0b5H
	DB	0b6H
	DB	0b7H
	DB	0b8H
	DB	0b9H
	DB	0baH
	DB	0c2H
	DB	0c3H
	DB	0c4H
	DB	0c5H
	DB	0c6H
	DB	0c7H
	DB	0c8H
	DB	0c9H
	DB	0caH
	DB	0d2H
	DB	0d3H
	DB	0d4H
	DB	0d5H
	DB	0d6H
	DB	0d7H
	DB	0d8H
	DB	0d9H
	DB	0daH
	DB	0e2H
	DB	0e3H
	DB	0e4H
	DB	0e5H
	DB	0e6H
	DB	0e7H
	DB	0e8H
	DB	0e9H
	DB	0eaH
	DB	0f2H
	DB	0f3H
	DB	0f4H
	DB	0f5H
	DB	0f6H
	DB	0f7H
	DB	0f8H
	DB	0f9H
	DB	0faH
	ORG $+6
?aasf@?1??stbi_write_jpg_core@@9@9 DD 0403504f3r ; 2.82843 ; `stbi_write_jpg_core'::`2'::aasf
	DD	0407b14bfr			; 3.92314
	DD	0406c835fr			; 3.69552
	DD	04054db30r			; 3.32588
	DD	0403504f3r			; 2.82843
	DD	0400e39dar			; 2.22228
	DD	03fc3ef15r			; 1.53073
	DD	03f47c5c2r			; 0.780361
	ORG $+8
?YDC_HT@?1??stbi_write_jpg_core@@9@9 DW 00H		; `stbi_write_jpg_core'::`2'::YDC_HT
	DW	02H
	DW	02H
	DW	03H
	DW	03H
	DW	03H
	DW	04H
	DW	03H
	DW	05H
	DW	03H
	DW	06H
	DW	03H
	DW	0eH
	DW	04H
	DW	01eH
	DW	05H
	DW	03eH
	DW	06H
	DW	07eH
	DW	07H
	DW	0feH
	DW	08H
	DW	01feH
	DW	09H
	ORG $+976
?UVDC_HT@?1??stbi_write_jpg_core@@9@9 DW 00H		; `stbi_write_jpg_core'::`2'::UVDC_HT
	DW	02H
	DW	01H
	DW	02H
	DW	02H
	DW	02H
	DW	06H
	DW	03H
	DW	0eH
	DW	04H
	DW	01eH
	DW	05H
	DW	03eH
	DW	06H
	DW	07eH
	DW	07H
	DW	0feH
	DW	08H
	DW	01feH
	DW	09H
	DW	03feH
	DW	0aH
	DW	07feH
	DW	0bH
	ORG $+976
?YAC_HT@?1??stbi_write_jpg_core@@9@9 DW 0aH		; `stbi_write_jpg_core'::`2'::YAC_HT
	DW	04H
	DW	00H
	DW	02H
	DW	01H
	DW	02H
	DW	04H
	DW	03H
	DW	0bH
	DW	04H
	DW	01aH
	DW	05H
	DW	078H
	DW	07H
	DW	0f8H
	DW	08H
	DW	03f6H
	DW	0aH
	DW	0ff82H
	DW	010H
	DW	0ff83H
	DW	010H
	DW	00H
	DW	00H
	DW	00H
	DW	00H
	DW	00H
	DW	00H
	DW	00H
	DW	00H
	DW	00H
	DW	00H
	DW	00H
	DW	00H
	DW	0cH
	DW	04H
	DW	01bH
	DW	05H
	DW	079H
	DW	07H
	DW	01f6H
	DW	09H
	DW	07f6H
	DW	0bH
	DW	0ff84H
	DW	010H
	DW	0ff85H
	DW	010H
	DW	0ff86H
	DW	010H
	DW	0ff87H
	DW	010H
	DW	0ff88H
	DW	010H
	DW	00H
	DW	00H
	DW	00H
	DW	00H
	DW	00H
	DW	00H
	DW	00H
	DW	00H
	DW	00H
	DW	00H
	DW	00H
	DW	00H
	DW	01cH
	DW	05H
	DW	0f9H
	DW	08H
	DW	03f7H
	DW	0aH
	DW	0ff4H
	DW	0cH
	DW	0ff89H
	DW	010H
	DW	0ff8aH
	DW	010H
	DW	0ff8bH
	DW	010H
	DW	0ff8cH
	DW	010H
	DW	0ff8dH
	DW	010H
	DW	0ff8eH
	DW	010H
	DW	00H
	DW	00H
	DW	00H
	DW	00H
	DW	00H
	DW	00H
	DW	00H
	DW	00H
	DW	00H
	DW	00H
	DW	00H
	DW	00H
	DW	03aH
	DW	06H
	DW	01f7H
	DW	09H
	DW	0ff5H
	DW	0cH
	DW	0ff8fH
	DW	010H
	DW	0ff90H
	DW	010H
	DW	0ff91H
	DW	010H
	DW	0ff92H
	DW	010H
	DW	0ff93H
	DW	010H
	DW	0ff94H
	DW	010H
	DW	0ff95H
	DW	010H
	DW	00H
	DW	00H
	DW	00H
	DW	00H
	DW	00H
	DW	00H
	DW	00H
	DW	00H
	DW	00H
	DW	00H
	DW	00H
	DW	00H
	DW	03bH
	DW	06H
	DW	03f8H
	DW	0aH
	DW	0ff96H
	DW	010H
	DW	0ff97H
	DW	010H
	DW	0ff98H
	DW	010H
	DW	0ff99H
	DW	010H
	DW	0ff9aH
	DW	010H
	DW	0ff9bH
	DW	010H
	DW	0ff9cH
	DW	010H
	DW	0ff9dH
	DW	010H
	DW	00H
	DW	00H
	DW	00H
	DW	00H
	DW	00H
	DW	00H
	DW	00H
	DW	00H
	DW	00H
	DW	00H
	DW	00H
	DW	00H
	DW	07aH
	DW	07H
	DW	07f7H
	DW	0bH
	DW	0ff9eH
	DW	010H
	DW	0ff9fH
	DW	010H
	DW	0ffa0H
	DW	010H
	DW	0ffa1H
	DW	010H
	DW	0ffa2H
	DW	010H
	DW	0ffa3H
	DW	010H
	DW	0ffa4H
	DW	010H
	DW	0ffa5H
	DW	010H
	DW	00H
	DW	00H
	DW	00H
	DW	00H
	DW	00H
	DW	00H
	DW	00H
	DW	00H
	DW	00H
	DW	00H
	DW	00H
	DW	00H
	DW	07bH
	DW	07H
	DW	0ff6H
	DW	0cH
	DW	0ffa6H
	DW	010H
	DW	0ffa7H
	DW	010H
	DW	0ffa8H
	DW	010H
	DW	0ffa9H
	DW	010H
	DW	0ffaaH
	DW	010H
	DW	0ffabH
	DW	010H
	DW	0ffacH
	DW	010H
	DW	0ffadH
	DW	010H
	DW	00H
	DW	00H
	DW	00H
	DW	00H
	DW	00H
	DW	00H
	DW	00H
	DW	00H
	DW	00H
	DW	00H
	DW	00H
	DW	00H
	DW	0faH
	DW	08H
	DW	0ff7H
	DW	0cH
	DW	0ffaeH
	DW	010H
	DW	0ffafH
	DW	010H
	DW	0ffb0H
	DW	010H
	DW	0ffb1H
	DW	010H
	DW	0ffb2H
	DW	010H
	DW	0ffb3H
	DW	010H
	DW	0ffb4H
	DW	010H
	DW	0ffb5H
	DW	010H
	DW	00H
	DW	00H
	DW	00H
	DW	00H
	DW	00H
	DW	00H
	DW	00H
	DW	00H
	DW	00H
	DW	00H
	DW	00H
	DW	00H
	DW	01f8H
	DW	09H
	DW	07fc0H
	DW	0fH
	DW	0ffb6H
	DW	010H
	DW	0ffb7H
	DW	010H
	DW	0ffb8H
	DW	010H
	DW	0ffb9H
	DW	010H
	DW	0ffbaH
	DW	010H
	DW	0ffbbH
	DW	010H
	DW	0ffbcH
	DW	010H
	DW	0ffbdH
	DW	010H
	DW	00H
	DW	00H
	DW	00H
	DW	00H
	DW	00H
	DW	00H
	DW	00H
	DW	00H
	DW	00H
	DW	00H
	DW	00H
	DW	00H
	DW	01f9H
	DW	09H
	DW	0ffbeH
	DW	010H
	DW	0ffbfH
	DW	010H
	DW	0ffc0H
	DW	010H
	DW	0ffc1H
	DW	010H
	DW	0ffc2H
	DW	010H
	DW	0ffc3H
	DW	010H
	DW	0ffc4H
	DW	010H
	DW	0ffc5H
	DW	010H
	DW	0ffc6H
	DW	010H
	DW	00H
	DW	00H
	DW	00H
	DW	00H
	DW	00H
	DW	00H
	DW	00H
	DW	00H
	DW	00H
	DW	00H
	DW	00H
	DW	00H
	DW	01faH
	DW	09H
	DW	0ffc7H
	DW	010H
	DW	0ffc8H
	DW	010H
	DW	0ffc9H
	DW	010H
	DW	0ffcaH
	DW	010H
	DW	0ffcbH
	DW	010H
	DW	0ffccH
	DW	010H
	DW	0ffcdH
	DW	010H
	DW	0ffceH
	DW	010H
	DW	0ffcfH
	DW	010H
	DW	00H
	DW	00H
	DW	00H
	DW	00H
	DW	00H
	DW	00H
	DW	00H
	DW	00H
	DW	00H
	DW	00H
	DW	00H
	DW	00H
	DW	03f9H
	DW	0aH
	DW	0ffd0H
	DW	010H
	DW	0ffd1H
	DW	010H
	DW	0ffd2H
	DW	010H
	DW	0ffd3H
	DW	010H
	DW	0ffd4H
	DW	010H
	DW	0ffd5H
	DW	010H
	DW	0ffd6H
	DW	010H
	DW	0ffd7H
	DW	010H
	DW	0ffd8H
	DW	010H
	DW	00H
	DW	00H
	DW	00H
	DW	00H
	DW	00H
	DW	00H
	DW	00H
	DW	00H
	DW	00H
	DW	00H
	DW	00H
	DW	00H
	DW	03faH
	DW	0aH
	DW	0ffd9H
	DW	010H
	DW	0ffdaH
	DW	010H
	DW	0ffdbH
	DW	010H
	DW	0ffdcH
	DW	010H
	DW	0ffddH
	DW	010H
	DW	0ffdeH
	DW	010H
	DW	0ffdfH
	DW	010H
	DW	0ffe0H
	DW	010H
	DW	0ffe1H
	DW	010H
	DW	00H
	DW	00H
	DW	00H
	DW	00H
	DW	00H
	DW	00H
	DW	00H
	DW	00H
	DW	00H
	DW	00H
	DW	00H
	DW	00H
	DW	07f8H
	DW	0bH
	DW	0ffe2H
	DW	010H
	DW	0ffe3H
	DW	010H
	DW	0ffe4H
	DW	010H
	DW	0ffe5H
	DW	010H
	DW	0ffe6H
	DW	010H
	DW	0ffe7H
	DW	010H
	DW	0ffe8H
	DW	010H
	DW	0ffe9H
	DW	010H
	DW	0ffeaH
	DW	010H
	DW	00H
	DW	00H
	DW	00H
	DW	00H
	DW	00H
	DW	00H
	DW	00H
	DW	00H
	DW	00H
	DW	00H
	DW	00H
	DW	00H
	DW	0ffebH
	DW	010H
	DW	0ffecH
	DW	010H
	DW	0ffedH
	DW	010H
	DW	0ffeeH
	DW	010H
	DW	0ffefH
	DW	010H
	DW	0fff0H
	DW	010H
	DW	0fff1H
	DW	010H
	DW	0fff2H
	DW	010H
	DW	0fff3H
	DW	010H
	DW	0fff4H
	DW	010H
	DW	00H
	DW	00H
	DW	00H
	DW	00H
	DW	00H
	DW	00H
	DW	00H
	DW	00H
	DW	00H
	DW	00H
	DW	07f9H
	DW	0bH
	DW	0fff5H
	DW	010H
	DW	0fff6H
	DW	010H
	DW	0fff7H
	DW	010H
	DW	0fff8H
	DW	010H
	DW	0fff9H
	DW	010H
	DW	0fffaH
	DW	010H
	DW	0fffbH
	DW	010H
	DW	0fffcH
	DW	010H
	DW	0fffdH
	DW	010H
	DW	0fffeH
	DW	010H
	DW	00H
	DW	00H
	DW	00H
	DW	00H
	DW	00H
	DW	00H
	DW	00H
	DW	00H
	DW	00H
	DW	00H
?UVAC_HT@?1??stbi_write_jpg_core@@9@9 DW 00H		; `stbi_write_jpg_core'::`2'::UVAC_HT
	DW	02H
	DW	01H
	DW	02H
	DW	04H
	DW	03H
	DW	0aH
	DW	04H
	DW	018H
	DW	05H
	DW	019H
	DW	05H
	DW	038H
	DW	06H
	DW	078H
	DW	07H
	DW	01f4H
	DW	09H
	DW	03f6H
	DW	0aH
	DW	0ff4H
	DW	0cH
	DW	00H
	DW	00H
	DW	00H
	DW	00H
	DW	00H
	DW	00H
	DW	00H
	DW	00H
	DW	00H
	DW	00H
	DW	00H
	DW	00H
	DW	0bH
	DW	04H
	DW	039H
	DW	06H
	DW	0f6H
	DW	08H
	DW	01f5H
	DW	09H
	DW	07f6H
	DW	0bH
	DW	0ff5H
	DW	0cH
	DW	0ff88H
	DW	010H
	DW	0ff89H
	DW	010H
	DW	0ff8aH
	DW	010H
	DW	0ff8bH
	DW	010H
	DW	00H
	DW	00H
	DW	00H
	DW	00H
	DW	00H
	DW	00H
	DW	00H
	DW	00H
	DW	00H
	DW	00H
	DW	00H
	DW	00H
	DW	01aH
	DW	05H
	DW	0f7H
	DW	08H
	DW	03f7H
	DW	0aH
	DW	0ff6H
	DW	0cH
	DW	07fc2H
	DW	0fH
	DW	0ff8cH
	DW	010H
	DW	0ff8dH
	DW	010H
	DW	0ff8eH
	DW	010H
	DW	0ff8fH
	DW	010H
	DW	0ff90H
	DW	010H
	DW	00H
	DW	00H
	DW	00H
	DW	00H
	DW	00H
	DW	00H
	DW	00H
	DW	00H
	DW	00H
	DW	00H
	DW	00H
	DW	00H
	DW	01bH
	DW	05H
	DW	0f8H
	DW	08H
	DW	03f8H
	DW	0aH
	DW	0ff7H
	DW	0cH
	DW	0ff91H
	DW	010H
	DW	0ff92H
	DW	010H
	DW	0ff93H
	DW	010H
	DW	0ff94H
	DW	010H
	DW	0ff95H
	DW	010H
	DW	0ff96H
	DW	010H
	DW	00H
	DW	00H
	DW	00H
	DW	00H
	DW	00H
	DW	00H
	DW	00H
	DW	00H
	DW	00H
	DW	00H
	DW	00H
	DW	00H
	DW	03aH
	DW	06H
	DW	01f6H
	DW	09H
	DW	0ff97H
	DW	010H
	DW	0ff98H
	DW	010H
	DW	0ff99H
	DW	010H
	DW	0ff9aH
	DW	010H
	DW	0ff9bH
	DW	010H
	DW	0ff9cH
	DW	010H
	DW	0ff9dH
	DW	010H
	DW	0ff9eH
	DW	010H
	DW	00H
	DW	00H
	DW	00H
	DW	00H
	DW	00H
	DW	00H
	DW	00H
	DW	00H
	DW	00H
	DW	00H
	DW	00H
	DW	00H
	DW	03bH
	DW	06H
	DW	03f9H
	DW	0aH
	DW	0ff9fH
	DW	010H
	DW	0ffa0H
	DW	010H
	DW	0ffa1H
	DW	010H
	DW	0ffa2H
	DW	010H
	DW	0ffa3H
	DW	010H
	DW	0ffa4H
	DW	010H
	DW	0ffa5H
	DW	010H
	DW	0ffa6H
	DW	010H
	DW	00H
	DW	00H
	DW	00H
	DW	00H
	DW	00H
	DW	00H
	DW	00H
	DW	00H
	DW	00H
	DW	00H
	DW	00H
	DW	00H
	DW	079H
	DW	07H
	DW	07f7H
	DW	0bH
	DW	0ffa7H
	DW	010H
	DW	0ffa8H
	DW	010H
	DW	0ffa9H
	DW	010H
	DW	0ffaaH
	DW	010H
	DW	0ffabH
	DW	010H
	DW	0ffacH
	DW	010H
	DW	0ffadH
	DW	010H
	DW	0ffaeH
	DW	010H
	DW	00H
	DW	00H
	DW	00H
	DW	00H
	DW	00H
	DW	00H
	DW	00H
	DW	00H
	DW	00H
	DW	00H
	DW	00H
	DW	00H
	DW	07aH
	DW	07H
	DW	07f8H
	DW	0bH
	DW	0ffafH
	DW	010H
	DW	0ffb0H
	DW	010H
	DW	0ffb1H
	DW	010H
	DW	0ffb2H
	DW	010H
	DW	0ffb3H
	DW	010H
	DW	0ffb4H
	DW	010H
	DW	0ffb5H
	DW	010H
	DW	0ffb6H
	DW	010H
	DW	00H
	DW	00H
	DW	00H
	DW	00H
	DW	00H
	DW	00H
	DW	00H
	DW	00H
	DW	00H
	DW	00H
	DW	00H
	DW	00H
	DW	0f9H
	DW	08H
	DW	0ffb7H
	DW	010H
	DW	0ffb8H
	DW	010H
	DW	0ffb9H
	DW	010H
	DW	0ffbaH
	DW	010H
	DW	0ffbbH
	DW	010H
	DW	0ffbcH
	DW	010H
	DW	0ffbdH
	DW	010H
	DW	0ffbeH
	DW	010H
	DW	0ffbfH
	DW	010H
	DW	00H
	DW	00H
	DW	00H
	DW	00H
	DW	00H
	DW	00H
	DW	00H
	DW	00H
	DW	00H
	DW	00H
	DW	00H
	DW	00H
	DW	01f7H
	DW	09H
	DW	0ffc0H
	DW	010H
	DW	0ffc1H
	DW	010H
	DW	0ffc2H
	DW	010H
	DW	0ffc3H
	DW	010H
	DW	0ffc4H
	DW	010H
	DW	0ffc5H
	DW	010H
	DW	0ffc6H
	DW	010H
	DW	0ffc7H
	DW	010H
	DW	0ffc8H
	DW	010H
	DW	00H
	DW	00H
	DW	00H
	DW	00H
	DW	00H
	DW	00H
	DW	00H
	DW	00H
	DW	00H
	DW	00H
	DW	00H
	DW	00H
	DW	01f8H
	DW	09H
	DW	0ffc9H
	DW	010H
	DW	0ffcaH
	DW	010H
	DW	0ffcbH
	DW	010H
	DW	0ffccH
	DW	010H
	DW	0ffcdH
	DW	010H
	DW	0ffceH
	DW	010H
	DW	0ffcfH
	DW	010H
	DW	0ffd0H
	DW	010H
	DW	0ffd1H
	DW	010H
	DW	00H
	DW	00H
	DW	00H
	DW	00H
	DW	00H
	DW	00H
	DW	00H
	DW	00H
	DW	00H
	DW	00H
	DW	00H
	DW	00H
	DW	01f9H
	DW	09H
	DW	0ffd2H
	DW	010H
	DW	0ffd3H
	DW	010H
	DW	0ffd4H
	DW	010H
	DW	0ffd5H
	DW	010H
	DW	0ffd6H
	DW	010H
	DW	0ffd7H
	DW	010H
	DW	0ffd8H
	DW	010H
	DW	0ffd9H
	DW	010H
	DW	0ffdaH
	DW	010H
	DW	00H
	DW	00H
	DW	00H
	DW	00H
	DW	00H
	DW	00H
	DW	00H
	DW	00H
	DW	00H
	DW	00H
	DW	00H
	DW	00H
	DW	01faH
	DW	09H
	DW	0ffdbH
	DW	010H
	DW	0ffdcH
	DW	010H
	DW	0ffddH
	DW	010H
	DW	0ffdeH
	DW	010H
	DW	0ffdfH
	DW	010H
	DW	0ffe0H
	DW	010H
	DW	0ffe1H
	DW	010H
	DW	0ffe2H
	DW	010H
	DW	0ffe3H
	DW	010H
	DW	00H
	DW	00H
	DW	00H
	DW	00H
	DW	00H
	DW	00H
	DW	00H
	DW	00H
	DW	00H
	DW	00H
	DW	00H
	DW	00H
	DW	07f9H
	DW	0bH
	DW	0ffe4H
	DW	010H
	DW	0ffe5H
	DW	010H
	DW	0ffe6H
	DW	010H
	DW	0ffe7H
	DW	010H
	DW	0ffe8H
	DW	010H
	DW	0ffe9H
	DW	010H
	DW	0ffeaH
	DW	010H
	DW	0ffebH
	DW	010H
	DW	0ffecH
	DW	010H
	DW	00H
	DW	00H
	DW	00H
	DW	00H
	DW	00H
	DW	00H
	DW	00H
	DW	00H
	DW	00H
	DW	00H
	DW	00H
	DW	00H
	DW	03fe0H
	DW	0eH
	DW	0ffedH
	DW	010H
	DW	0ffeeH
	DW	010H
	DW	0ffefH
	DW	010H
	DW	0fff0H
	DW	010H
	DW	0fff1H
	DW	010H
	DW	0fff2H
	DW	010H
	DW	0fff3H
	DW	010H
	DW	0fff4H
	DW	010H
	DW	0fff5H
	DW	010H
	DW	00H
	DW	00H
	DW	00H
	DW	00H
	DW	00H
	DW	00H
	DW	00H
	DW	00H
	DW	00H
	DW	00H
	DW	03faH
	DW	0aH
	DW	07fc3H
	DW	0fH
	DW	0fff6H
	DW	010H
	DW	0fff7H
	DW	010H
	DW	0fff8H
	DW	010H
	DW	0fff9H
	DW	010H
	DW	0fffaH
	DW	010H
	DW	0fffbH
	DW	010H
	DW	0fffcH
	DW	010H
	DW	0fffdH
	DW	010H
	DW	0fffeH
	DW	010H
	DW	00H
	DW	00H
	DW	00H
	DW	00H
	DW	00H
	DW	00H
	DW	00H
	DW	00H
	DW	00H
	DW	00H
?YQT@?1??stbi_write_jpg_core@@9@9 DD 010H		; `stbi_write_jpg_core'::`2'::YQT
	DD	0bH
	DD	0aH
	DD	010H
	DD	018H
	DD	028H
	DD	033H
	DD	03dH
	DD	0cH
	DD	0cH
	DD	0eH
	DD	013H
	DD	01aH
	DD	03aH
	DD	03cH
	DD	037H
	DD	0eH
	DD	0dH
	DD	010H
	DD	018H
	DD	028H
	DD	039H
	DD	045H
	DD	038H
	DD	0eH
	DD	011H
	DD	016H
	DD	01dH
	DD	033H
	DD	057H
	DD	050H
	DD	03eH
	DD	012H
	DD	016H
	DD	025H
	DD	038H
	DD	044H
	DD	06dH
	DD	067H
	DD	04dH
	DD	018H
	DD	023H
	DD	037H
	DD	040H
	DD	051H
	DD	068H
	DD	071H
	DD	05cH
	DD	031H
	DD	040H
	DD	04eH
	DD	057H
	DD	067H
	DD	079H
	DD	078H
	DD	065H
	DD	048H
	DD	05cH
	DD	05fH
	DD	062H
	DD	070H
	DD	064H
	DD	067H
	DD	063H
?UVQT@?1??stbi_write_jpg_core@@9@9 DD 011H		; `stbi_write_jpg_core'::`2'::UVQT
	DD	012H
	DD	018H
	DD	02fH
	DD	063H
	DD	063H
	DD	063H
	DD	063H
	DD	012H
	DD	015H
	DD	01aH
	DD	042H
	DD	063H
	DD	063H
	DD	063H
	DD	063H
	DD	018H
	DD	01aH
	DD	038H
	DD	063H
	DD	063H
	DD	063H
	DD	063H
	DD	063H
	DD	02fH
	DD	042H
	DD	063H
	DD	063H
	DD	063H
	DD	063H
	DD	063H
	DD	063H
	DD	063H
	DD	063H
	DD	063H
	DD	063H
	DD	063H
	DD	063H
	DD	063H
	DD	063H
	DD	063H
	DD	063H
	DD	063H
	DD	063H
	DD	063H
	DD	063H
	DD	063H
	DD	063H
	DD	063H
	DD	063H
	DD	063H
	DD	063H
	DD	063H
	DD	063H
	DD	063H
	DD	063H
	DD	063H
	DD	063H
	DD	063H
	DD	063H
	DD	063H
	DD	063H
	DD	063H
	DD	063H
?head0@?9??stbi_write_jpg_core@@9@9 DB 0ffH		; `stbi_write_jpg_core'::`10'::head0
	DB	0d8H
	DB	0ffH
	DB	0e0H
	DB	00H
	DB	010H
	DB	04aH
	DB	046H
	DB	049H
	DB	046H
	DB	00H
	DB	01H
	DB	01H
	DB	00H
	DB	00H
	DB	01H
	DB	00H
	DB	01H
	DB	00H
	DB	00H
	DB	0ffH
	DB	0dbH
	DB	00H
	DB	084H
	DB	00H
	ORG $+7
?head2@?9??stbi_write_jpg_core@@9@9 DB 0ffH		; `stbi_write_jpg_core'::`10'::head2
	DB	0daH
	DB	00H
	DB	0cH
	DB	03H
	DB	01H
	DB	00H
	DB	02H
	DB	011H
	DB	03H
	DB	011H
	DB	00H
	DB	03fH
	DB	00H
	ORG $+2
rx_ps_shader_bytecode DB 044H
	DB	058H
	DB	042H
	DB	043H
	DB	0d0H
	DB	084H
	DB	0d0H
	DB	058H
	DB	035H
	DB	0a1H
	DB	05fH
	DB	02eH
	DB	017H
	DB	072H
	DB	07bH
	DB	0eaH
	DB	049H
	DB	0b2H
	DB	08H
	DB	095H
	DB	01H
	DB	00H
	DB	00H
	DB	00H
	DB	07cH
	DB	01H
	DB	00H
	DB	00H
	DB	03H
	DB	00H
	DB	00H
	DB	00H
	DB	02cH
	DB	00H
	DB	00H
	DB	00H
	DB	0a0H
	DB	00H
	DB	00H
	DB	00H
	DB	0d4H
	DB	00H
	DB	00H
	DB	00H
	DB	049H
	DB	053H
	DB	047H
	DB	04eH
	DB	06cH
	DB	00H
	DB	00H
	DB	00H
	DB	03H
	DB	00H
	DB	00H
	DB	00H
	DB	08H
	DB	00H
	DB	00H
	DB	00H
	DB	050H
	DB	00H
	DB	00H
	DB	00H
	DB	00H
	DB	00H
	DB	00H
	DB	00H
	DB	01H
	DB	00H
	DB	00H
	DB	00H
	DB	03H
	DB	00H
	DB	00H
	DB	00H
	DB	00H
	DB	00H
	DB	00H
	DB	00H
	DB	0fH
	DB	00H
	DB	00H
	DB	00H
	DB	05cH
	DB	00H
	DB	00H
	DB	00H
	DB	00H
	DB	00H
	DB	00H
	DB	00H
	DB	00H
	DB	00H
	DB	00H
	DB	00H
	DB	03H
	DB	00H
	DB	00H
	DB	00H
	DB	01H
	DB	00H
	DB	00H
	DB	00H
	DB	0fH
	DB	0fH
	DB	00H
	DB	00H
	DB	062H
	DB	00H
	DB	00H
	DB	00H
	DB	00H
	DB	00H
	DB	00H
	DB	00H
	DB	00H
	DB	00H
	DB	00H
	DB	00H
	DB	03H
	DB	00H
	DB	00H
	DB	00H
	DB	02H
	DB	00H
	DB	00H
	DB	00H
	DB	03H
	DB	03H
	DB	00H
	DB	00H
	DB	053H
	DB	056H
	DB	05fH
	DB	050H
	DB	04fH
	DB	053H
	DB	049H
	DB	054H
	DB	049H
	DB	04fH
	DB	04eH
	DB	00H
	DB	043H
	DB	04fH
	DB	04cH
	DB	04fH
	DB	052H
	DB	00H
	DB	054H
	DB	045H
	DB	058H
	DB	043H
	DB	04fH
	DB	04fH
	DB	052H
	DB	044H
	DB	00H
	DB	0abH
	DB	04fH
	DB	053H
	DB	047H
	DB	04eH
	DB	02cH
	DB	00H
	DB	00H
	DB	00H
	DB	01H
	DB	00H
	DB	00H
	DB	00H
	DB	08H
	DB	00H
	DB	00H
	DB	00H
	DB	020H
	DB	00H
	DB	00H
	DB	00H
	DB	00H
	DB	00H
	DB	00H
	DB	00H
	DB	00H
	DB	00H
	DB	00H
	DB	00H
	DB	03H
	DB	00H
	DB	00H
	DB	00H
	DB	00H
	DB	00H
	DB	00H
	DB	00H
	DB	0fH
	DB	00H
	DB	00H
	DB	00H
	DB	053H
	DB	056H
	DB	05fH
	DB	054H
	DB	061H
	DB	072H
	DB	067H
	DB	065H
	DB	074H
	DB	00H
	DB	0abH
	DB	0abH
	DB	053H
	DB	048H
	DB	045H
	DB	058H
	DB	0a0H
	DB	00H
	DB	00H
	DB	00H
	DB	050H
	DB	00H
	DB	00H
	DB	00H
	DB	028H
	DB	00H
	DB	00H
	DB	00H
	DB	06aH
	DB	08H
	DB	00H
	DB	01H
	DB	05aH
	DB	00H
	DB	00H
	DB	03H
	DB	00H
	DB	060H
	DB	010H
	DB	00H
	DB	00H
	DB	00H
	DB	00H
	DB	00H
	DB	058H
	DB	018H
	DB	00H
	DB	04H
	DB	00H
	DB	070H
	DB	010H
	DB	00H
	DB	00H
	DB	00H
	DB	00H
	DB	00H
	DB	055H
	DB	055H
	DB	00H
	DB	00H
	DB	062H
	DB	010H
	DB	00H
	DB	03H
	DB	0f2H
	DB	010H
	DB	010H
	DB	00H
	DB	01H
	DB	00H
	DB	00H
	DB	00H
	DB	062H
	DB	010H
	DB	00H
	DB	03H
	DB	032H
	DB	010H
	DB	010H
	DB	00H
	DB	02H
	DB	00H
	DB	00H
	DB	00H
	DB	065H
	DB	00H
	DB	00H
	DB	03H
	DB	0f2H
	DB	020H
	DB	010H
	DB	00H
	DB	00H
	DB	00H
	DB	00H
	DB	00H
	DB	068H
	DB	00H
	DB	00H
	DB	02H
	DB	01H
	DB	00H
	DB	00H
	DB	00H
	DB	045H
	DB	00H
	DB	00H
	DB	08bH
	DB	0c2H
	DB	00H
	DB	00H
	DB	080H
	DB	043H
	DB	055H
	DB	015H
	DB	00H
	DB	0f2H
	DB	00H
	DB	010H
	DB	00H
	DB	00H
	DB	00H
	DB	00H
	DB	00H
	DB	046H
	DB	010H
	DB	010H
	DB	00H
	DB	02H
	DB	00H
	DB	00H
	DB	00H
	DB	046H
	DB	07eH
	DB	010H
	DB	00H
	DB	00H
	DB	00H
	DB	00H
	DB	00H
	DB	00H
	DB	060H
	DB	010H
	DB	00H
	DB	00H
	DB	00H
	DB	00H
	DB	00H
	DB	038H
	DB	00H
	DB	00H
	DB	07H
	DB	0f2H
	DB	020H
	DB	010H
	DB	00H
	DB	00H
	DB	00H
	DB	00H
	DB	00H
	DB	046H
	DB	0eH
	DB	010H
	DB	00H
	DB	00H
	DB	00H
	DB	00H
	DB	00H
	DB	046H
	DB	01eH
	DB	010H
	DB	00H
	DB	01H
	DB	00H
	DB	00H
	DB	00H
	DB	03eH
	DB	00H
	DB	00H
	DB	01H
	ORG $+4
rx_vs_shader_bytecode DB 044H
	DB	058H
	DB	042H
	DB	043H
	DB	011H
	DB	02eH
	DB	0b2H
	DB	03aH
	DB	04dH
	DB	02dH
	DB	0c5H
	DB	071H
	DB	08fH
	DB	0eeH
	DB	079H
	DB	045H
	DB	09aH
	DB	0f2H
	DB	0f4H
	DB	0aaH
	DB	01H
	DB	00H
	DB	00H
	DB	00H
	DB	04cH
	DB	02H
	DB	00H
	DB	00H
	DB	03H
	DB	00H
	DB	00H
	DB	00H
	DB	02cH
	DB	00H
	DB	00H
	DB	00H
	DB	09cH
	DB	00H
	DB	00H
	DB	00H
	DB	010H
	DB	01H
	DB	00H
	DB	00H
	DB	049H
	DB	053H
	DB	047H
	DB	04eH
	DB	068H
	DB	00H
	DB	00H
	DB	00H
	DB	03H
	DB	00H
	DB	00H
	DB	00H
	DB	08H
	DB	00H
	DB	00H
	DB	00H
	DB	050H
	DB	00H
	DB	00H
	DB	00H
	DB	00H
	DB	00H
	DB	00H
	DB	00H
	DB	00H
	DB	00H
	DB	00H
	DB	00H
	DB	03H
	DB	00H
	DB	00H
	DB	00H
	DB	00H
	DB	00H
	DB	00H
	DB	00H
	DB	0fH
	DB	0fH
	DB	00H
	DB	00H
	DB	059H
	DB	00H
	DB	00H
	DB	00H
	DB	00H
	DB	00H
	DB	00H
	DB	00H
	DB	00H
	DB	00H
	DB	00H
	DB	00H
	DB	03H
	DB	00H
	DB	00H
	DB	00H
	DB	01H
	DB	00H
	DB	00H
	DB	00H
	DB	03H
	DB	03H
	DB	00H
	DB	00H
	DB	062H
	DB	00H
	DB	00H
	DB	00H
	DB	00H
	DB	00H
	DB	00H
	DB	00H
	DB	00H
	DB	00H
	DB	00H
	DB	00H
	DB	03H
	DB	00H
	DB	00H
	DB	00H
	DB	02H
	DB	00H
	DB	00H
	DB	00H
	DB	0fH
	DB	0fH
	DB	00H
	DB	00H
	DB	050H
	DB	04fH
	DB	053H
	DB	049H
	DB	054H
	DB	049H
	DB	04fH
	DB	04eH
	DB	00H
	DB	054H
	DB	045H
	DB	058H
	DB	043H
	DB	04fH
	DB	04fH
	DB	052H
	DB	044H
	DB	00H
	DB	043H
	DB	04fH
	DB	04cH
	DB	04fH
	DB	052H
	DB	00H
	DB	04fH
	DB	053H
	DB	047H
	DB	04eH
	DB	06cH
	DB	00H
	DB	00H
	DB	00H
	DB	03H
	DB	00H
	DB	00H
	DB	00H
	DB	08H
	DB	00H
	DB	00H
	DB	00H
	DB	050H
	DB	00H
	DB	00H
	DB	00H
	DB	00H
	DB	00H
	DB	00H
	DB	00H
	DB	01H
	DB	00H
	DB	00H
	DB	00H
	DB	03H
	DB	00H
	DB	00H
	DB	00H
	DB	00H
	DB	00H
	DB	00H
	DB	00H
	DB	0fH
	DB	00H
	DB	00H
	DB	00H
	DB	05cH
	DB	00H
	DB	00H
	DB	00H
	DB	00H
	DB	00H
	DB	00H
	DB	00H
	DB	00H
	DB	00H
	DB	00H
	DB	00H
	DB	03H
	DB	00H
	DB	00H
	DB	00H
	DB	01H
	DB	00H
	DB	00H
	DB	00H
	DB	0fH
	DB	00H
	DB	00H
	DB	00H
	DB	062H
	DB	00H
	DB	00H
	DB	00H
	DB	00H
	DB	00H
	DB	00H
	DB	00H
	DB	00H
	DB	00H
	DB	00H
	DB	00H
	DB	03H
	DB	00H
	DB	00H
	DB	00H
	DB	02H
	DB	00H
	DB	00H
	DB	00H
	DB	03H
	DB	0cH
	DB	00H
	DB	00H
	DB	053H
	DB	056H
	DB	05fH
	DB	050H
	DB	04fH
	DB	053H
	DB	049H
	DB	054H
	DB	049H
	DB	04fH
	DB	04eH
	DB	00H
	DB	043H
	DB	04fH
	DB	04cH
	DB	04fH
	DB	052H
	DB	00H
	DB	054H
	DB	045H
	DB	058H
	DB	043H
	DB	04fH
	DB	04fH
	DB	052H
	DB	044H
	DB	00H
	DB	0abH
	DB	053H
	DB	048H
	DB	045H
	DB	058H
	DB	034H
	DB	01H
	DB	00H
	DB	00H
	DB	050H
	DB	00H
	DB	01H
	DB	00H
	DB	04dH
	DB	00H
	DB	00H
	DB	00H
	DB	06aH
	DB	08H
	DB	00H
	DB	01H
	DB	059H
	DB	00H
	DB	00H
	DB	04H
	DB	046H
	DB	08eH
	DB	020H
	DB	00H
	DB	00H
	DB	00H
	DB	00H
	DB	00H
	DB	04H
	DB	00H
	DB	00H
	DB	00H
	DB	05fH
	DB	00H
	DB	00H
	DB	03H
	DB	0f2H
	DB	010H
	DB	010H
	DB	00H
	DB	00H
	DB	00H
	DB	00H
	DB	00H
	DB	05fH
	DB	00H
	DB	00H
	DB	03H
	DB	032H
	DB	010H
	DB	010H
	DB	00H
	DB	01H
	DB	00H
	DB	00H
	DB	00H
	DB	05fH
	DB	00H
	DB	00H
	DB	03H
	DB	0f2H
	DB	010H
	DB	010H
	DB	00H
	DB	02H
	DB	00H
	DB	00H
	DB	00H
	DB	067H
	DB	00H
	DB	00H
	DB	04H
	DB	0f2H
	DB	020H
	DB	010H
	DB	00H
	DB	00H
	DB	00H
	DB	00H
	DB	00H
	DB	01H
	DB	00H
	DB	00H
	DB	00H
	DB	065H
	DB	00H
	DB	00H
	DB	03H
	DB	0f2H
	DB	020H
	DB	010H
	DB	00H
	DB	01H
	DB	00H
	DB	00H
	DB	00H
	DB	065H
	DB	00H
	DB	00H
	DB	03H
	DB	032H
	DB	020H
	DB	010H
	DB	00H
	DB	02H
	DB	00H
	DB	00H
	DB	00H
	DB	068H
	DB	00H
	DB	00H
	DB	02H
	DB	01H
	DB	00H
	DB	00H
	DB	00H
	DB	038H
	DB	00H
	DB	00H
	DB	08H
	DB	0f2H
	DB	00H
	DB	010H
	DB	00H
	DB	00H
	DB	00H
	DB	00H
	DB	00H
	DB	056H
	DB	015H
	DB	010H
	DB	00H
	DB	00H
	DB	00H
	DB	00H
	DB	00H
	DB	046H
	DB	08eH
	DB	020H
	DB	00H
	DB	00H
	DB	00H
	DB	00H
	DB	00H
	DB	01H
	DB	00H
	DB	00H
	DB	00H
	DB	032H
	DB	00H
	DB	00H
	DB	0aH
	DB	0f2H
	DB	00H
	DB	010H
	DB	00H
	DB	00H
	DB	00H
	DB	00H
	DB	00H
	DB	046H
	DB	08eH
	DB	020H
	DB	00H
	DB	00H
	DB	00H
	DB	00H
	DB	00H
	DB	00H
	DB	00H
	DB	00H
	DB	00H
	DB	06H
	DB	010H
	DB	010H
	DB	00H
	DB	00H
	DB	00H
	DB	00H
	DB	00H
	DB	046H
	DB	0eH
	DB	010H
	DB	00H
	DB	00H
	DB	00H
	DB	00H
	DB	00H
	DB	032H
	DB	00H
	DB	00H
	DB	0aH
	DB	0f2H
	DB	00H
	DB	010H
	DB	00H
	DB	00H
	DB	00H
	DB	00H
	DB	00H
	DB	046H
	DB	08eH
	DB	020H
	DB	00H
	DB	00H
	DB	00H
	DB	00H
	DB	00H
	DB	02H
	DB	00H
	DB	00H
	DB	00H
	DB	0a6H
	DB	01aH
	DB	010H
	DB	00H
	DB	00H
	DB	00H
	DB	00H
	DB	00H
	DB	046H
	DB	0eH
	DB	010H
	DB	00H
	DB	00H
	DB	00H
	DB	00H
	DB	00H
	DB	032H
	DB	00H
	DB	00H
	DB	0aH
	DB	0f2H
	DB	020H
	DB	010H
	DB	00H
	DB	00H
	DB	00H
	DB	00H
	DB	00H
	DB	046H
	DB	08eH
	DB	020H
	DB	00H
	DB	00H
	DB	00H
	DB	00H
	DB	00H
	DB	03H
	DB	00H
	DB	00H
	DB	00H
	DB	0f6H
	DB	01fH
	DB	010H
	DB	00H
	DB	00H
	DB	00H
	DB	00H
	DB	00H
	DB	046H
	DB	0eH
	DB	010H
	DB	00H
	DB	00H
	DB	00H
	DB	00H
	DB	00H
	DB	036H
	DB	00H
	DB	00H
	DB	05H
	DB	0f2H
	DB	020H
	DB	010H
	DB	00H
	DB	01H
	DB	00H
	DB	00H
	DB	00H
	DB	046H
	DB	01eH
	DB	010H
	DB	00H
	DB	02H
	DB	00H
	DB	00H
	DB	00H
	DB	036H
	DB	00H
	DB	00H
	DB	05H
	DB	032H
	DB	020H
	DB	010H
	DB	00H
	DB	02H
	DB	00H
	DB	00H
	DB	00H
	DB	046H
	DB	010H
	DB	010H
	DB	00H
	DB	01H
	DB	00H
	DB	00H
	DB	00H
	DB	03eH
	DB	00H
	DB	00H
	DB	01H
	ORG $+4
stbsp__bot DQ	03ff0000000000000r		; 1
	DQ	04024000000000000r		; 10
	DQ	04059000000000000r		; 100
	DQ	0408f400000000000r		; 1000
	DQ	040c3880000000000r		; 10000
	DQ	040f86a0000000000r		; 100000
	DQ	0412e848000000000r		; 1e+06
	DQ	0416312d000000000r		; 1e+07
	DQ	04197d78400000000r		; 1e+08
	DQ	041cdcd6500000000r		; 1e+09
	DQ	04202a05f20000000r		; 1e+10
	DQ	042374876e8000000r		; 1e+11
	DQ	0426d1a94a2000000r		; 1e+12
	DQ	042a2309ce5400000r		; 1e+13
	DQ	042d6bcc41e900000r		; 1e+14
	DQ	0430c6bf526340000r		; 1e+15
	DQ	04341c37937e08000r		; 1e+16
	DQ	04376345785d8a000r		; 1e+17
	DQ	043abc16d674ec800r		; 1e+18
	DQ	043e158e460913d00r		; 1e+19
	DQ	04415af1d78b58c40r		; 1e+20
	DQ	0444b1ae4d6e2ef50r		; 1e+21
	DQ	04480f0cf064dd592r		; 1e+22
	ORG $+8
stbsp__negbot DQ 03fb999999999999ar		; 0.1
	DQ	03f847ae147ae147br		; 0.01
	DQ	03f50624dd2f1a9fcr		; 0.001
	DQ	03f1a36e2eb1c432dr		; 0.0001
	DQ	03ee4f8b588e368f1r		; 1e-05
	DQ	03eb0c6f7a0b5ed8dr		; 1e-06
	DQ	03e7ad7f29abcaf48r		; 1e-07
	DQ	03e45798ee2308c3ar		; 1e-08
	DQ	03e112e0be826d695r		; 1e-09
	DQ	03ddb7cdfd9d7bdbbr		; 1e-10
	DQ	03da5fd7fe1796495r		; 1e-11
	DQ	03d719799812dea11r		; 1e-12
	DQ	03d3c25c268497682r		; 1e-13
	DQ	03d06849b86a12b9br		; 1e-14
	DQ	03cd203af9ee75616r		; 1e-15
	DQ	03c9cd2b297d889bcr		; 1e-16
	DQ	03c670ef54646d497r		; 1e-17
	DQ	03c32725dd1d243acr		; 1e-18
	DQ	03bfd83c94fb6d2acr		; 1e-19
	DQ	03bc79ca10c924223r		; 1e-20
	DQ	03b92e3b40a0e9b4fr		; 1e-21
	DQ	03b5e392010175ee6r		; 1e-22
stbsp__negboterr DQ 0bc5999999999999ar		; -5.55112e-18
	DQ	0bc0eb851eb851eb8r		; -2.08167e-19
	DQ	0bbd89374bc6a7efar		; -2.08167e-20
	DQ	0bbb6a161e4f765fer		; -4.79217e-21
	DQ	0bb8ee78183f91e64r		; -8.18031e-22
	DQ	03b4b5a63f9a49c2cr		; 4.52519e-23
	DQ	03b15e1e99483b023r		; 4.52519e-24
	DQ	0bad03023df2d4c94r		; -2.09226e-25
	DQ	0bab34674bfabb83br		; -6.22816e-26
	DQ	0ba720a5465df8d2cr		; -3.64322e-27
	DQ	03a47f7bc7b4d28aar		; 6.0503e-28
	DQ	039f97f27f0f6e886r		; 2.01134e-29
	DQ	0b9cecd79a5a0df95r		; -3.03737e-30
	DQ	0394ea70909833de7r		; 1.18069e-32
	DQ	0b97937831647f5a0r		; -7.77054e-32
	DQ	03925b4c2ebe68799r		; 2.09022e-33
	DQ	0b90db7b2080a3029r		; -7.15424e-34
	DQ	0b8d7c628066e8ceer		; -7.15424e-35
	DQ	0388a52b31e9e3d07r		; 2.47541e-36
	DQ	038675447a5d8e536r		; 5.48467e-37
	DQ	0383f769fb7e0b75er		; 9.24625e-38
	DQ	0b7fa7566d9cba769r		; -4.85968e-39
stbsp__top DQ	044b52d02c7e14af6r		; 1e+23
	DQ	0497c06a5ec5433c6r		; 1e+46
	DQ	04e428bc8abe49f64r		; 1e+69
	DQ	053088ba3bf284e24r		; 1e+92
	DQ	057d03e29f5c2b18cr		; 1e+115
	DQ	05c957f48bb41db7cr		; 1e+138
	DQ	0615c73892ecbfbf4r		; 1e+161
	DQ	06622d3d6f88f0b3dr		; 1e+184
	DQ	06ae8eb0138858d0ar		; 1e+207
	DQ	06fb07d457124123dr		; 1e+230
	DQ	07475d2ce55747a18r		; 1e+253
	DQ	0793ce2137f743382r		; 1e+276
	DQ	07e031cfd3999f7b0r		; 1e+299
	ORG $+8
stbsp__negtop DQ 03b282db34012b251r		; 1e-23
	DQ	0366244ce242c5561r		; 1e-46
	DQ	0319b9b6364f30304r		; 1e-69
	DQ	02cd4dbf7b3f71cb7r		; 1e-92
	DQ	0280f8587e7083e30r		; 1e-115
	DQ	02347d12a4670c123r		; 1e-138
	DQ	01e81fee341fc585dr		; 1e-161
	DQ	019bb31bb5dc320d2r		; 1e-184
	DQ	014f48c22ca71a1bdr		; 1e-207
	DQ	0102f0ce4839198dbr		; 1e-230
	DQ	00b677603725064a8r		; 1e-253
	DQ	006a1ba03f5b21000r		; 1e-276
	DQ	001dac9a7b3b7302fr		; 1e-299
	ORG $+8
stbsp__toperr DQ 04160000000000000r		; 8.38861e+06
	DQ	045ebb542c80deb40r		; 6.86018e+28
	DQ	0cae83b80b9aab60ar		; -7.25314e+52
	DQ	0cfa32e22d17a166cr		; -4.33773e+75
	DQ	0d4523606902e180er		; -1.55594e+98
	DQ	0d9296fb782462e87r		; -3.28416e+121
	DQ	0ddf358952c0bd011r		; -3.77459e+144
	DQ	0e2a78c1376a34b6cr		; -1.73567e+167
	DQ	0e7817569fc243adfr		; -3.88936e+190
	DQ	0ec5d9365a897aaa6r		; -9.95664e+213
	DQ	07119050c256123a0r		; 6.36413e+236
	DQ	0f5db1799d76cc7a6r		; -5.20691e+259
	DQ	0faa213fe39571a38r		; -5.25048e+282
	ORG $+8
stbsp__negtoperr DQ 037c13badb829e079r		; 3.95653e-40
	DQ	0b2ee46a98d3d9f64r		; -2.2999e-63
	DQ	02e3227c7218a2b65r		; 3.65062e-86
	DQ	02951d96999aa01e9r		; 1.18752e-109
	DQ	0a4acc2229efc3962r		; -5.06449e-132
	DQ	09fecd04a2263407ar		; -6.71568e-155
	DQ	09b123b80f187a157r		; -2.81208e-178
	DQ	0965c4e22914ed912r		; -5.77789e-201
	DQ	0119bc296cdf42f82r		; 7.49971e-224
	DQ	08cc9f9e7f4e16fe1r		; -4.64397e-247
	DQ	0880aeb0a72a8902ar		; -6.36911e-270
	DQ	0834e228e12c13408r		; -9.43681e-293
	DQ	00000000000fa1259r		; 8.09709e-317
	ORG $+8
stbsp__powten DQ 0000000000000001H
	DQ	000000000000000aH
	DQ	0000000000000064H
	DQ	00000000000003e8H
	DQ	0000000000002710H
	DQ	00000000000186a0H
	DQ	00000000000f4240H
	DQ	0000000000989680H
	DQ	0000000005f5e100H
	DQ	000000003b9aca00H
	DQ	00000002540be400H
	DQ	000000174876e800H
	DQ	000000e8d4a51000H
	DQ	000009184e72a000H
	DQ	00005af3107a4000H
	DQ	00038d7ea4c68000H
	DQ	002386f26fc10000H
	DQ	016345785d8a0000H
	DQ	0de0b6b3a7640000H
	DQ	8ac7230489e80000H
stbi__bmask DD	00H
	DD	01H
	DD	03H
	DD	07H
	DD	0fH
	DD	01fH
	DD	03fH
	DD	07fH
	DD	0ffH
	DD	01ffH
	DD	03ffH
	DD	07ffH
	DD	0fffH
	DD	01fffH
	DD	03fffH
	DD	07fffH
	DD	0ffffH
	ORG $+12
stbi__jbias DD	00H
	DD	0ffffffffH
	DD	0fffffffdH
	DD	0fffffff9H
	DD	0fffffff1H
	DD	0ffffffe1H
	DD	0ffffffc1H
	DD	0ffffff81H
	DD	0ffffff01H
	DD	0fffffe01H
	DD	0fffffc01H
	DD	0fffff801H
	DD	0fffff001H
	DD	0ffffe001H
	DD	0ffffc001H
	DD	0ffff8001H
stbi__jpeg_dezigzag DB 00H
	DB	01H
	DB	08H
	DB	010H
	DB	09H
	DB	02H
	DB	03H
	DB	0aH
	DB	011H
	DB	018H
	DB	020H
	DB	019H
	DB	012H
	DB	0bH
	DB	04H
	DB	05H
	DB	0cH
	DB	013H
	DB	01aH
	DB	021H
	DB	028H
	DB	030H
	DB	029H
	DB	022H
	DB	01bH
	DB	014H
	DB	0dH
	DB	06H
	DB	07H
	DB	0eH
	DB	015H
	DB	01cH
	DB	023H
	DB	02aH
	DB	031H
	DB	038H
	DB	039H
	DB	032H
	DB	02bH
	DB	024H
	DB	01dH
	DB	016H
	DB	0fH
	DB	017H
	DB	01eH
	DB	025H
	DB	02cH
	DB	033H
	DB	03aH
	DB	03bH
	DB	034H
	DB	02dH
	DB	026H
	DB	01fH
	DB	027H
	DB	02eH
	DB	035H
	DB	03cH
	DB	03dH
	DB	036H
	DB	02fH
	DB	037H
	DB	03eH
	DB	03fH
	DB	03fH
	DB	03fH
	DB	03fH
	DB	03fH
	DB	03fH
	DB	03fH
	DB	03fH
	DB	03fH
	DB	03fH
	DB	03fH
	DB	03fH
	DB	03fH
	DB	03fH
	DB	03fH
	DB	03fH
CONST	ENDS
PUBLIC	stbsp_vsprintf
PUBLIC	stbsp_vsnprintf
PUBLIC	stbsp_sprintf
PUBLIC	stbsp_snprintf
PUBLIC	stbsp_vsprintfcb
PUBLIC	stbsp_set_separators
PUBLIC	stbi_load_from_memory
PUBLIC	stbi_load_from_callbacks
PUBLIC	stbi_load
PUBLIC	stbi_load_from_file
PUBLIC	stbi_load_gif_from_memory
PUBLIC	stbi_load_16_from_memory
PUBLIC	stbi_load_16_from_callbacks
PUBLIC	stbi_load_16
PUBLIC	stbi_load_from_file_16
PUBLIC	stbi_loadf_from_memory
PUBLIC	stbi_loadf_from_callbacks
PUBLIC	stbi_loadf
PUBLIC	stbi_loadf_from_file
PUBLIC	stbi_hdr_to_ldr_gamma
PUBLIC	stbi_hdr_to_ldr_scale
PUBLIC	stbi_ldr_to_hdr_gamma
PUBLIC	stbi_ldr_to_hdr_scale
PUBLIC	stbi_is_hdr_from_callbacks
PUBLIC	stbi_is_hdr_from_memory
PUBLIC	stbi_is_hdr
PUBLIC	stbi_is_hdr_from_file
PUBLIC	stbi_failure_reason
PUBLIC	stbi_image_free
PUBLIC	stbi_info_from_memory
PUBLIC	stbi_info_from_callbacks
PUBLIC	stbi_is_16_bit_from_memory
PUBLIC	stbi_is_16_bit_from_callbacks
PUBLIC	stbi_info
PUBLIC	stbi_info_from_file
PUBLIC	stbi_is_16_bit
PUBLIC	stbi_is_16_bit_from_file
PUBLIC	stbi_set_unpremultiply_on_load
PUBLIC	stbi_convert_iphone_png_to_rgb
PUBLIC	stbi_set_flip_vertically_on_load
PUBLIC	stbi_convert_iphone_png_to_rgb_thread
PUBLIC	stbi_set_flip_vertically_on_load_thread
PUBLIC	stbi_zlib_decode_malloc_guesssize
PUBLIC	stbi_zlib_decode_malloc_guesssize_headerflag
PUBLIC	stbi_zlib_decode_malloc
PUBLIC	stbi_zlib_decode_buffer
PUBLIC	stbi_zlib_decode_noheader_malloc
PUBLIC	stbi_zlib_decode_noheader_buffer
PUBLIC	stbi__unpremultiply_on_load_thread
PUBLIC	stbi_write_png
PUBLIC	stbi_write_bmp
PUBLIC	stbi_write_tga
PUBLIC	stbi_write_hdr
PUBLIC	stbi_write_jpg
PUBLIC	stbi_write_png_to_func
PUBLIC	stbi_write_bmp_to_func
PUBLIC	stbi_write_tga_to_func
PUBLIC	stbi_write_hdr_to_func
PUBLIC	stbi_write_jpg_to_func
PUBLIC	stbi_flip_vertically_on_write
PUBLIC	stbi_zlib_compress
PUBLIC	stbi_write_png_to_mem
PUBLIC	rxvec3
PUBLIC	rxvec3_xyz
PUBLIC	rxvec3_xy
PUBLIC	rxvec3_x
PUBLIC	rxvec3_y
PUBLIC	rxvec3_z
PUBLIC	rxmatrix_identity
PUBLIC	rxmatrix_multiply
PUBLIC	rxmix
PUBLIC	rxunmix
PUBLIC	rxremix
PUBLIC	rxclamp
PUBLIC	rxpow2i
PUBLIC	rxclampi
PUBLIC	rxmax
PUBLIC	rxmin
PUBLIC	rxmaxi
PUBLIC	rxmini
PUBLIC	rxvector_dot
PUBLIC	rxvector_cross
PUBLIC	rxvector_length
PUBLIC	rxvec2_dot
PUBLIC	rxvec2_len
PUBLIC	rxvec2_add
PUBLIC	rxvec2_sub
PUBLIC	rxvector_add
PUBLIC	rxvector_sub
PUBLIC	rxvector_mul
PUBLIC	rxvector_downscale
PUBLIC	rxvector_scale
PUBLIC	rxvector_negate
PUBLIC	rxvector_min
PUBLIC	rxvector_max
PUBLIC	rxvector_abs
PUBLIC	rxvector_normalize
PUBLIC	rxmatrix_projection
PUBLIC	rxmatrix_rotZ
PUBLIC	rxmatrix_rotY
PUBLIC	rxmatrix_rotX
PUBLIC	rxmatrix_translate_xyz
PUBLIC	rxmatrix_flip_vertically
PUBLIC	rxmul_matvec
PUBLIC	rxadd_vec2
PUBLIC	rxmul_vec2
PUBLIC	rxvec2_xy
PUBLIC	rxvec2i_vec2
PUBLIC	rxlinker_register_terminal
PUBLIC	rxlinker_onlyquery_terminal
PUBLIC	rxlinker_labelshas_terminal
PUBLIC	rxlinker_labelsadd_terminal
PUBLIC	rxlinker_labelsrem_terminal
PUBLIC	rxlinker_resolve_terminal
PUBLIC	rxtexture_load
PUBLIC	rxrender_target_copy
PUBLIC	rxrender_target_apply
PUBLIC	rxshader_apply
PUBLIC	rxcompile_shader_bytecode
PUBLIC	rxload_vertex_shader
PUBLIC	rxload_pixel_shader
PUBLIC	rxbuffer_borrow
PUBLIC	rxuniform_buffer_delete
PUBLIC	rxuniform_buffer_update
PUBLIC	rxuniform_buffer_bind_ex
PUBLIC	rxenable_ztesting
PUBLIC	rxarticle_create
PUBLIC	rxarticle_attach
PUBLIC	rxinvalidate_contents
PUBLIC	rxunknown_typeof_compute_shader
PUBLIC	rxunknown_typeof_vertex_shader
PUBLIC	rxunknown_typeof_pixel_shader
PUBLIC	rxshader_typeof_compute
PUBLIC	rxshader_typeof_vertex
PUBLIC	rxshader_typeof_pixel
PUBLIC	rxdelete_blobbler
PUBLIC	rxcreate_shader
PUBLIC	rxdelete_unknown
PUBLIC	rxdelete_vertex_buffer
PUBLIC	rxdelete_index_buffer
PUBLIC	rxreturn
PUBLIC	rxuniform_buffer_borrow
PUBLIC	rxuniform_buffer_create
PUBLIC	rxcreate_index_buffer
PUBLIC	rxcreate_vertex_buffer
PUBLIC	rxcreate_struct_buffer
PUBLIC	rxborrow_vertex_buffer
PUBLIC	rxborrow_index_buffer
PUBLIC	rxborrow_struct_buffer
PUBLIC	rxdriver_stage_viewport
PUBLIC	rxcomtag
PUBLIC	rxcomadd
PUBLIC	rx3d
PUBLIC	rx2d
PUBLIC	rxclip
PUBLIC	rxsampler_bind_ex
PUBLIC	rxtexture_bind_ex
PUBLIC	rxcomexc
PUBLIC	rxdraw_end
PUBLIC	rxqueue_custom_command
PUBLIC	rxdraw_matrix
PUBLIC	rxclear
PUBLIC	rxqueue_shader_command
PUBLIC	rxqueue_uniform_command
PUBLIC	rxvertex_mode_end
PUBLIC	rxvertex_mode
PUBLIC	rxsubmit_index
PUBLIC	rxvertex_color_rgba
PUBLIC	rxvertex_color
PUBLIC	rxsubmit_vertex_array
PUBLIC	rxsubmit_vertex
PUBLIC	rxsubmit_vertex_ex
PUBLIC	rx_vertex_xyz
PUBLIC	rx_vertex_xyz_color
PUBLIC	rxsubmit_vertex_xy
PUBLIC	rxsubmit_vertex_tex
PUBLIC	rxdraw_skinned_preset_unnormalized
PUBLIC	rxdraw_skinned_unnormalized
PUBLIC	rxdraw_skinned_ex
PUBLIC	rxdraw_skinned
PUBLIC	rxtexture_scaled
PUBLIC	rxdraw_rect
PUBLIC	rxdraw_circle
PUBLIC	rxdraw_line
PUBLIC	rxdraw_outline
PUBLIC	rxdraw_text_length
PUBLIC	rxchrxsz
PUBLIC	rxdraw_text_ex
PUBLIC	rxdraw_text
PUBLIC	rxtexture_delete
PUBLIC	rxcreate_render_target
PUBLIC	rxtime
PUBLIC	rxeffect_candle
PUBLIC	rxeffect_shadow
PUBLIC	rxrestore_render_stack
PUBLIC	rxdefault_render_pass_end
PUBLIC	rxwindow_message_handler_win32
PUBLIC	rxwindow_message_callback_win32
PUBLIC	rxwindow_poll
PUBLIC	rxwindow_create
PUBLIC	rxwindow_enable
PUBLIC	rxwindow_resize
PUBLIC	rxwindow_xy
PUBLIC	rxtick
PUBLIC	rxcreate_simple_stencil_state_d3d
PUBLIC	rxinit_default_font
PUBLIC	rxinit
PUBLIC	load_bitmap8
PUBLIC	is_click_leave_rect
PUBLIC	is_click_enter_rect
PUBLIC	mouse_is_key
PUBLIC	rect_by_xyxy
PUBLIC	rect_by_size
PUBLIC	rect_in_xy
PUBLIC	rect_cut
PUBLIC	rect_center
PUBLIC	rect_padd
PUBLIC	text_rect
PUBLIC	set_window_rect
PUBLIC	get_monitor_rect
PUBLIC	get_window_rect
PUBLIC	get_window_client_rect
PUBLIC	draw_rect
PUBLIC	draw_text
PUBLIC	set_clip_rect
PUBLIC	button_widget
PUBLIC	checkbox_widget
PUBLIC	dropdown_widget
PUBLIC	cursor_in_rect
PUBLIC	is_click_enter
PUBLIC	rxtstkey
PUBLIC	rxchr
PUBLIC	list_item_widget
PUBLIC	slider_widget
PUBLIC	is_click_leave
PUBLIC	mouse_poll
PUBLIC	erecache
PUBLIC	buflen
PUBLIC	egetrow
PUBLIC	egetlen
PUBLIC	egetoff
PUBLIC	esetcur
PUBLIC	egetcur
PUBLIC	egetcurx
PUBLIC	egetcury
PUBLIC	ecurloc
PUBLIC	currec
PUBLIC	emovcurx
PUBLIC	emovcury
PUBLIC	eputchar
PUBLIC	edelchar
PUBLIC	fload
PUBLIC	fsave
PUBLIC	ewdg
PUBLIC	copy_string_ex
PUBLIC	copy_string
PUBLIC	fdlg
PUBLIC	main
PUBLIC	__real@00000000
PUBLIC	__real@0a4fb11f
PUBLIC	__real@3c8efa35
PUBLIC	__real@3d909091
PUBLIC	__real@3da685db
PUBLIC	__real@3de978d5
PUBLIC	__real@3e48c8c9
PUBLIC	__real@3e4ccccd
PUBLIC	__real@3e800000
PUBLIC	__real@3e991687
PUBLIC	__real@3e99999a
PUBLIC	__real@3ea99ae9
PUBLIC	__real@3ec3ef15
PUBLIC	__real@3ecccccd
PUBLIC	__real@3ed65e89
PUBLIC	__real@3f000000
PUBLIC	__real@3f0a8bd4
PUBLIC	__real@3f1645a2
PUBLIC	__real@3f3504f3
PUBLIC	__real@3f40c0c1
PUBLIC	__real@3f800000
PUBLIC	__real@3f847ae147ae147b
PUBLIC	__real@3fa73d75
PUBLIC	__real@3fa999999999999a
PUBLIC	__real@3fd0000000000000
PUBLIC	__real@3fe0000000000000
PUBLIC	__real@3ff0000000000000
PUBLIC	__real@4000000000000000
PUBLIC	__real@400921fb60000000
PUBLIC	__real@40400000
PUBLIC	__real@4056800000000000
PUBLIC	__real@4066800000000000
PUBLIC	__real@408f400000000000
PUBLIC	__real@4090000000000000
PUBLIC	__real@40c00000
PUBLIC	__real@41200000
PUBLIC	__real@41800000
PUBLIC	__real@43000000
PUBLIC	__real@437f0000
PUBLIC	__real@43800000
PUBLIC	__real@477fff00
PUBLIC	__real@be2cca2e
PUBLIC	__real@bf800000
PUBLIC	__xmm@00000200000002000000020000000200
PUBLIC	__xmm@00080008000800080008000800080008
PUBLIC	__xmm@00ff00ff00ff00ff00ff00ff00ff00ff
PUBLIC	__xmm@01010000010100000101000001010000
PUBLIC	__xmm@08a914e808a914e808a914e808a914e8
PUBLIC	__xmm@11c8e09e11c8e09e11c8e09e11c8e09e
PUBLIC	__xmm@11c8f9c311c8f9c311c8f9c311c8f9c3
PUBLIC	__xmm@12d0046b12d0046b12d0046b12d0046b
PUBLIC	__xmm@166f166f166f166f166f166f166f166f
PUBLIC	__xmm@1c5a1c5a1c5a1c5a1c5a1c5a1c5a1c5a
PUBLIC	__xmm@80000000000000008000000000000000
PUBLIC	__xmm@80000000800000008000000080000000
PUBLIC	__xmm@80808080808080808080808080808080
PUBLIC	__xmm@e09ee565e09ee565e09ee565e09ee565
PUBLIC	__xmm@e9cf12d0e9cf12d0e9cf12d0e9cf12d0
PUBLIC	__xmm@eb1a08a9eb1a08a9eb1a08a9eb1a08a9
PUBLIC	__xmm@f493f493f493f493f493f493f493f493
PUBLIC	__xmm@f9c31a9df9c31a9df9c31a9df9c31a9d
PUBLIC	__xmm@fa7efa7efa7efa7efa7efa7efa7efa7e
EXTRN	__report_rangecheckfailure:PROC
EXTRN	memcmp:PROC
EXTRN	memcpy:PROC
EXTRN	memmove:PROC
EXTRN	memset:PROC
EXTRN	strcmp:PROC
EXTRN	strlen:PROC
EXTRN	strncmp:PROC
EXTRN	__imp_GetStdHandle:PROC
EXTRN	__imp_SetCurrentDirectoryA:PROC
EXTRN	__imp_GetCurrentDirectoryA:PROC
EXTRN	__imp_CreateFileA:PROC
EXTRN	__imp_FlushFileBuffers:PROC
EXTRN	__imp_GetFileSize:PROC
EXTRN	__imp_GetFinalPathNameByHandleA:PROC
EXTRN	__imp_ReadFile:PROC
EXTRN	__imp_WriteFile:PROC
EXTRN	__imp_OutputDebugStringA:PROC
EXTRN	__imp_CloseHandle:PROC
EXTRN	__imp_QueryPerformanceCounter:PROC
EXTRN	__imp_QueryPerformanceFrequency:PROC
EXTRN	__imp_GetOverlappedResult:PROC
EXTRN	__imp_WaitForSingleObject:PROC
EXTRN	__imp_WaitForSingleObjectEx:PROC
EXTRN	__imp_CreateEventA:PROC
EXTRN	__imp_FreeLibrary:PROC
EXTRN	__imp_GetModuleHandleW:PROC
EXTRN	__imp_GetProcAddress:PROC
EXTRN	__imp_LoadLibraryA:PROC
EXTRN	__imp_ReadDirectoryChangesW:PROC
EXTRN	__imp_TranslateMessage:PROC
EXTRN	__imp_DispatchMessageW:PROC
EXTRN	__imp_PeekMessageA:PROC
EXTRN	__imp_DefWindowProcW:PROC
EXTRN	__imp_PostQuitMessage:PROC
EXTRN	__imp_RegisterClassW:PROC
EXTRN	__imp_CreateWindowExW:PROC
EXTRN	__imp_ShowWindow:PROC
EXTRN	__imp_SetWindowPos:PROC
EXTRN	__imp_GetKeyState:PROC
EXTRN	__imp_GetSystemMetrics:PROC
EXTRN	__imp_GetClientRect:PROC
EXTRN	__imp_GetWindowRect:PROC
EXTRN	__imp_AdjustWindowRect:PROC
EXTRN	__imp_SetCursor:PROC
EXTRN	__imp_LoadCursorA:PROC
EXTRN	__imp_WideCharToMultiByte:PROC
EXTRN	__imp_SetConsoleTextAttribute:PROC
EXTRN	free:PROC
EXTRN	malloc:PROC
EXTRN	realloc:PROC
EXTRN	abs:PROC
EXTRN	_lrotl:PROC
EXTRN	strtol:PROC
EXTRN	D3DCompile:PROC
EXTRN	D3DReflect:PROC
EXTRN	D3DGetBlobPart:PROC
EXTRN	D3D11CreateDevice:PROC
EXTRN	fopen_s:PROC
EXTRN	fclose:PROC
EXTRN	feof:PROC
EXTRN	ferror:PROC
EXTRN	fgetc:PROC
EXTRN	fread:PROC
EXTRN	fseek:PROC
EXTRN	ftell:PROC
EXTRN	fwrite:PROC
EXTRN	ungetc:PROC
EXTRN	printf:PROC
EXTRN	cos:PROC
EXTRN	pow:PROC
EXTRN	sin:PROC
EXTRN	tan:PROC
EXTRN	frexp:PROC
EXTRN	ldexp:PROC
EXTRN	cosf:PROC
EXTRN	sinf:PROC
EXTRN	sqrtf:PROC
EXTRN	_wassert:PROC
EXTRN	__imp_GetOpenFileNameA:PROC
EXTRN	__GSHandlerCheck:PROC
EXTRN	__chkstk:PROC
EXTRN	__security_check_cookie:PROC
EXTRN	IID_ID3D11ShaderReflection:BYTE
EXTRN	IID_IDXGIDevice:BYTE
EXTRN	IID_ID3D11Resource:BYTE
EXTRN	IID_ID3D11Buffer:BYTE
EXTRN	IID_ID3D11Texture2D:BYTE
EXTRN	IID_ID3D11ShaderResourceView:BYTE
EXTRN	IID_ID3D11RenderTargetView:BYTE
EXTRN	IID_ID3D11VertexShader:BYTE
EXTRN	IID_ID3D11PixelShader:BYTE
EXTRN	IID_ID3D11ComputeShader:BYTE
EXTRN	IID_ID3D11InfoQueue:BYTE
EXTRN	IID_IDXGIFactory2:BYTE
EXTRN	__ImageBase:BYTE
EXTRN	__security_cookie:QWORD
EXTRN	_fltused:DWORD
EXTRN	_tls_index:DWORD
_TLS	SEGMENT
stbi__g_failure_reason DQ 01H DUP (?)
_TLS	ENDS
_BSS	SEGMENT
stbi__vertically_flip_on_load_global DD 01H DUP (?)
_BSS	ENDS
_TLS	SEGMENT
stbi__vertically_flip_on_load_local DD 01H DUP (?)
stbi__vertically_flip_on_load_set DD 01H DUP (?)
_TLS	ENDS
_BSS	SEGMENT
stbi__unpremultiply_on_load_global DD 01H DUP (?)
stbi__de_iphone_flag_global DD 01H DUP (?)
_BSS	ENDS
_TLS	SEGMENT
stbi__unpremultiply_on_load_local DD 01H DUP (?)
stbi__unpremultiply_on_load_set DD 01H DUP (?)
stbi__de_iphone_flag_local DD 01H DUP (?)
stbi__de_iphone_flag_set DD 01H DUP (?)
_TLS	ENDS
_BSS	SEGMENT
$SG134520 DB	01H DUP (?)
	ALIGN	4

stbi__flip_vertically_on_write DD 01H DUP (?)
rx	DB	05809e8H DUP (?)
?EntryBuffer@?1??rxinvalidate_contents@@9@9 DB 01140H DUP (?) ; `rxinvalidate_contents'::`2'::EntryBuffer
?IsEventActive@?1??rxinvalidate_contents@@9@9 DD 01H DUP (?) ; `rxinvalidate_contents'::`2'::IsEventActive
?editor@?1??main@@9@9 DB 048H DUP (?)			; `main'::`2'::editor
_BSS	ENDS
pdata	SEGMENT
$pdata$stbsp_vsprintf DD imagerel $LN3
	DD	imagerel $LN3+53
	DD	imagerel $unwind$stbsp_vsprintf
$pdata$stbsp_vsnprintf DD imagerel $LN6
	DD	imagerel $LN6+303
	DD	imagerel $unwind$stbsp_vsnprintf
$pdata$stbsp_sprintf DD imagerel $LN3
	DD	imagerel $LN3+85
	DD	imagerel $unwind$stbsp_sprintf
$pdata$stbsp_snprintf DD imagerel $LN3
	DD	imagerel $LN3+79
	DD	imagerel $unwind$stbsp_snprintf
$pdata$stbsp_vsprintfcb DD imagerel $LN408
	DD	imagerel $LN408+13380
	DD	imagerel $unwind$stbsp_vsprintfcb
$pdata$stbsp__real_to_str DD imagerel stbsp__real_to_str
	DD	imagerel stbsp__real_to_str+1613
	DD	imagerel $unwind$stbsp__real_to_str
$pdata$stbsp__real_to_parts DD imagerel stbsp__real_to_parts
	DD	imagerel stbsp__real_to_parts+154
	DD	imagerel $unwind$stbsp__real_to_parts
$pdata$stbsp__strlen_limited DD imagerel stbsp__strlen_limited
	DD	imagerel stbsp__strlen_limited+239
	DD	imagerel $unwind$stbsp__strlen_limited
$pdata$stbsp__clamp_callback DD imagerel stbsp__clamp_callback
	DD	imagerel stbsp__clamp_callback+300
	DD	imagerel $unwind$stbsp__clamp_callback
$pdata$stbsp__count_clamp_callback DD imagerel stbsp__count_clamp_callback
	DD	imagerel stbsp__count_clamp_callback+59
	DD	imagerel $unwind$stbsp__count_clamp_callback
$pdata$stbsp__raise_to_power10 DD imagerel stbsp__raise_to_power10
	DD	imagerel stbsp__raise_to_power10+3868
	DD	imagerel $unwind$stbsp__raise_to_power10
$pdata$ccuserallocator_ DD imagerel ccuserallocator_
	DD	imagerel ccuserallocator_+1632
	DD	imagerel $unwind$ccuserallocator_
$pdata$ccinternalallocator_ DD imagerel ccinternalallocator_
	DD	imagerel ccinternalallocator_+83
	DD	imagerel $unwind$ccinternalallocator_
$pdata$ccinit DD imagerel ccinit
	DD	imagerel ccinit+213
	DD	imagerel $unwind$ccinit
$pdata$ccformatvex DD imagerel ccformatvex
	DD	imagerel ccformatvex+52
	DD	imagerel $unwind$ccformatvex
$pdata$ccformatv DD imagerel ccformatv
	DD	imagerel ccformatv+354
	DD	imagerel $unwind$ccformatv
$pdata$ccformat DD imagerel ccformat
	DD	imagerel ccformat+73
	DD	imagerel $unwind$ccformat
$pdata$ccclocktick DD imagerel ccclocktick
	DD	imagerel ccclocktick+25
	DD	imagerel $unwind$ccclocktick
$pdata$cccaller DD imagerel cccaller
	DD	imagerel cccaller+91
	DD	imagerel $unwind$cccaller
$pdata$ccdlbadd_ DD imagerel ccdlbadd_
	DD	imagerel ccdlbadd_+992
	DD	imagerel $unwind$ccdlbadd_
$pdata$cctblhsh_ DD imagerel cctblhsh_
	DD	imagerel cctblhsh_+1896
	DD	imagerel $unwind$cctblhsh_
$pdata$cctblgeti_ DD imagerel cctblgeti_
	DD	imagerel cctblgeti_+385
	DD	imagerel $unwind$cctblgeti_
$pdata$cctblputi_ DD imagerel cctblputi_
	DD	imagerel cctblputi_+585
	DD	imagerel $unwind$cctblputi_
$pdata$cctblseti_ DD imagerel cctblseti_
	DD	imagerel cctblseti_+347
	DD	imagerel $unwind$cctblseti_
$pdata$ccdlbdel_ DD imagerel ccdlbdel_
	DD	imagerel ccdlbdel_+570
	DD	imagerel $unwind$ccdlbdel_
$pdata$ccfnames DD imagerel ccfnames
	DD	imagerel ccfnames+103
	DD	imagerel $unwind$ccfnames
$pdata$cctrace_ DD imagerel cctrace_
	DD	imagerel cctrace_+143
	DD	imagerel $unwind$cctrace_
$pdata$ccprintf DD imagerel ccprintf
	DD	imagerel ccprintf+2725
	DD	imagerel $unwind$ccprintf
$pdata$ccout DD	imagerel ccout
	DD	imagerel ccout+35
	DD	imagerel $unwind$ccout
$pdata$ccstatic_alloc DD imagerel ccstatic_alloc
	DD	imagerel ccstatic_alloc+403
	DD	imagerel $unwind$ccstatic_alloc
$pdata$ccallocentry DD imagerel ccallocentry
	DD	imagerel ccallocentry+181
	DD	imagerel $unwind$ccallocentry
$pdata$cccheck_ward DD imagerel cccheck_ward
	DD	imagerel cccheck_ward+1481
	DD	imagerel $unwind$cccheck_ward
$pdata$ccfileext DD imagerel ccfileext
	DD	imagerel ccfileext+90
	DD	imagerel $unwind$ccfileext
$pdata$ccrealfile DD imagerel ccrealfile
	DD	imagerel ccrealfile+41
	DD	imagerel $unwind$ccrealfile
$pdata$ccfilesize DD imagerel ccfilesize
	DD	imagerel ccfilesize+27
	DD	imagerel $unwind$ccfilesize
$pdata$ccflushfile DD imagerel ccflushfile
	DD	imagerel ccflushfile+135
	DD	imagerel $unwind$ccflushfile
$pdata$ccclosefile DD imagerel ccclosefile
	DD	imagerel ccclosefile+25
	DD	imagerel $unwind$ccclosefile
$pdata$ccopenfile DD imagerel ccopenfile
	DD	imagerel ccopenfile+433
	DD	imagerel $unwind$ccopenfile
$pdata$ccfnameh__ DD imagerel ccfnameh__
	DD	imagerel ccfnameh__+98
	DD	imagerel $unwind$ccfnameh__
$pdata$ccfnameh DD imagerel ccfnameh
	DD	imagerel ccfnameh+32
	DD	imagerel $unwind$ccfnameh
$pdata$ccpullfile DD imagerel ccpullfile
	DD	imagerel ccpullfile+816
	DD	imagerel $unwind$ccpullfile
$pdata$ccpushfile DD imagerel ccpushfile
	DD	imagerel ccpushfile+622
	DD	imagerel $unwind$ccpushfile
$pdata$stbi_load_from_memory DD imagerel $LN3
	DD	imagerel $LN3+139
	DD	imagerel $unwind$stbi_load_from_memory
$pdata$stbi_load_from_callbacks DD imagerel $LN3
	DD	imagerel $LN3+140
	DD	imagerel $unwind$stbi_load_from_callbacks
$pdata$stbi_load DD imagerel $LN6
	DD	imagerel $LN6+158
	DD	imagerel $unwind$stbi_load
$pdata$stbi_load_from_file DD imagerel $LN4
	DD	imagerel $LN4+195
	DD	imagerel $unwind$stbi_load_from_file
$pdata$stbi_load_gif_from_memory DD imagerel $LN6
	DD	imagerel $LN6+315
	DD	imagerel $unwind$stbi_load_gif_from_memory
$pdata$stbi_load_16_from_memory DD imagerel $LN3
	DD	imagerel $LN3+139
	DD	imagerel $unwind$stbi_load_16_from_memory
$pdata$stbi_load_16_from_callbacks DD imagerel $LN3
	DD	imagerel $LN3+140
	DD	imagerel $unwind$stbi_load_16_from_callbacks
$pdata$stbi_load_16 DD imagerel $LN6
	DD	imagerel $LN6+158
	DD	imagerel $unwind$stbi_load_16
$pdata$stbi_load_from_file_16 DD imagerel $LN4
	DD	imagerel $LN4+195
	DD	imagerel $unwind$stbi_load_from_file_16
$pdata$stbi_loadf_from_memory DD imagerel $LN3
	DD	imagerel $LN3+139
	DD	imagerel $unwind$stbi_loadf_from_memory
$pdata$stbi_loadf_from_callbacks DD imagerel $LN3
	DD	imagerel $LN3+140
	DD	imagerel $unwind$stbi_loadf_from_callbacks
$pdata$stbi_loadf DD imagerel $LN6
	DD	imagerel $LN6+158
	DD	imagerel $unwind$stbi_loadf
$pdata$stbi_loadf_from_file DD imagerel $LN3
	DD	imagerel $LN3+132
	DD	imagerel $unwind$stbi_loadf_from_file
$pdata$stbi_is_hdr_from_callbacks DD imagerel $LN3
	DD	imagerel $LN3+95
	DD	imagerel $unwind$stbi_is_hdr_from_callbacks
$pdata$stbi_is_hdr_from_memory DD imagerel $LN3
	DD	imagerel $LN3+94
	DD	imagerel $unwind$stbi_is_hdr_from_memory
$pdata$stbi_is_hdr DD imagerel $LN4
	DD	imagerel $LN4+80
	DD	imagerel $unwind$stbi_is_hdr
$pdata$stbi_is_hdr_from_file DD imagerel $LN3
	DD	imagerel $LN3+127
	DD	imagerel $unwind$stbi_is_hdr_from_file
$pdata$stbi_image_free DD imagerel $LN3
	DD	imagerel $LN3+96
	DD	imagerel $unwind$stbi_image_free
$pdata$stbi_info_from_memory DD imagerel $LN3
	DD	imagerel $LN3+128
	DD	imagerel $unwind$stbi_info_from_memory
$pdata$stbi_info_from_callbacks DD imagerel $LN3
	DD	imagerel $LN3+129
	DD	imagerel $unwind$stbi_info_from_callbacks
$pdata$stbi_is_16_bit_from_memory DD imagerel $LN3
	DD	imagerel $LN3+94
	DD	imagerel $unwind$stbi_is_16_bit_from_memory
$pdata$stbi_is_16_bit_from_callbacks DD imagerel $LN3
	DD	imagerel $LN3+95
	DD	imagerel $unwind$stbi_is_16_bit_from_callbacks
$pdata$stbi_info DD imagerel $LN4
	DD	imagerel $LN4+116
	DD	imagerel $unwind$stbi_info
$pdata$stbi_info_from_file DD imagerel $LN3
	DD	imagerel $LN3+166
	DD	imagerel $unwind$stbi_info_from_file
$pdata$stbi_is_16_bit DD imagerel $LN4
	DD	imagerel $LN4+86
	DD	imagerel $unwind$stbi_is_16_bit
$pdata$stbi_is_16_bit_from_file DD imagerel $LN3
	DD	imagerel $LN3+127
	DD	imagerel $unwind$stbi_is_16_bit_from_file
$pdata$stbi_zlib_decode_malloc_guesssize DD imagerel $LN7
	DD	imagerel $LN7+339
	DD	imagerel $unwind$stbi_zlib_decode_malloc_guesssize
$pdata$stbi_zlib_decode_malloc_guesssize_headerflag DD imagerel $LN7
	DD	imagerel $LN7+342
	DD	imagerel $unwind$stbi_zlib_decode_malloc_guesssize_headerflag
$pdata$stbi_zlib_decode_malloc DD imagerel $LN3
	DD	imagerel $LN3+48
	DD	imagerel $unwind$stbi_zlib_decode_malloc
$pdata$stbi_zlib_decode_buffer DD imagerel $LN5
	DD	imagerel $LN5+180
	DD	imagerel $unwind$stbi_zlib_decode_buffer
$pdata$stbi_zlib_decode_noheader_malloc DD imagerel $LN7
	DD	imagerel $LN7+326
	DD	imagerel $unwind$stbi_zlib_decode_noheader_malloc
$pdata$stbi_zlib_decode_noheader_buffer DD imagerel $LN5
	DD	imagerel $LN5+180
	DD	imagerel $unwind$stbi_zlib_decode_noheader_buffer
$pdata$stbi__cpuid3 DD imagerel stbi__cpuid3
	DD	imagerel stbi__cpuid3+80
	DD	imagerel $unwind$stbi__cpuid3
$pdata$stbi__sse2_available DD imagerel stbi__sse2_available
	DD	imagerel stbi__sse2_available+54
	DD	imagerel $unwind$stbi__sse2_available
$pdata$stbi__refill_buffer DD imagerel stbi__refill_buffer
	DD	imagerel stbi__refill_buffer+231
	DD	imagerel $unwind$stbi__refill_buffer
$pdata$stbi__start_mem DD imagerel stbi__start_mem
	DD	imagerel stbi__start_mem+147
	DD	imagerel $unwind$stbi__start_mem
$pdata$stbi__start_callbacks DD imagerel stbi__start_callbacks
	DD	imagerel stbi__start_callbacks+184
	DD	imagerel $unwind$stbi__start_callbacks
$pdata$stbi__stdio_read DD imagerel stbi__stdio_read
	DD	imagerel stbi__stdio_read+52
	DD	imagerel $unwind$stbi__stdio_read
$pdata$stbi__stdio_skip DD imagerel stbi__stdio_skip
	DD	imagerel stbi__stdio_skip+73
	DD	imagerel $unwind$stbi__stdio_skip
$pdata$stbi__stdio_eof DD imagerel stbi__stdio_eof
	DD	imagerel stbi__stdio_eof+64
	DD	imagerel $unwind$stbi__stdio_eof
$pdata$stbi__start_file DD imagerel stbi__start_file
	DD	imagerel stbi__start_file+41
	DD	imagerel $unwind$stbi__start_file
$pdata$stbi__jpeg_test DD imagerel stbi__jpeg_test
	DD	imagerel stbi__jpeg_test+201
	DD	imagerel $unwind$stbi__jpeg_test
$pdata$stbi__jpeg_load DD imagerel stbi__jpeg_load
	DD	imagerel stbi__jpeg_load+264
	DD	imagerel $unwind$stbi__jpeg_load
$pdata$stbi__jpeg_info DD imagerel stbi__jpeg_info
	DD	imagerel stbi__jpeg_info+212
	DD	imagerel $unwind$stbi__jpeg_info
$pdata$stbi__png_test DD imagerel stbi__png_test
	DD	imagerel stbi__png_test+42
	DD	imagerel $unwind$stbi__png_test
$pdata$stbi__png_load DD imagerel stbi__png_load
	DD	imagerel stbi__png_load+94
	DD	imagerel $unwind$stbi__png_load
$pdata$stbi__png_info DD imagerel stbi__png_info
	DD	imagerel stbi__png_info+64
	DD	imagerel $unwind$stbi__png_info
$pdata$stbi__png_is16 DD imagerel stbi__png_is16
	DD	imagerel stbi__png_is16+76
	DD	imagerel $unwind$stbi__png_is16
$pdata$stbi__bmp_test DD imagerel stbi__bmp_test
	DD	imagerel stbi__bmp_test+42
	DD	imagerel $unwind$stbi__bmp_test
$pdata$stbi__bmp_load DD imagerel stbi__bmp_load
	DD	imagerel stbi__bmp_load+4878
	DD	imagerel $unwind$stbi__bmp_load
$pdata$stbi__bmp_info DD imagerel stbi__bmp_info
	DD	imagerel stbi__bmp_info+249
	DD	imagerel $unwind$stbi__bmp_info
$pdata$stbi__tga_test DD imagerel stbi__tga_test
	DD	imagerel stbi__tga_test+374
	DD	imagerel $unwind$stbi__tga_test
$pdata$stbi__tga_load DD imagerel stbi__tga_load
	DD	imagerel stbi__tga_load+3082
	DD	imagerel $unwind$stbi__tga_load
$pdata$stbi__tga_info DD imagerel stbi__tga_info
	DD	imagerel stbi__tga_info+612
	DD	imagerel $unwind$stbi__tga_info
$pdata$stbi__psd_test DD imagerel stbi__psd_test
	DD	imagerel stbi__psd_test+71
	DD	imagerel $unwind$stbi__psd_test
$pdata$stbi__psd_load DD imagerel stbi__psd_load
	DD	imagerel stbi__psd_load+3070
	DD	imagerel $unwind$stbi__psd_load
$pdata$stbi__psd_info DD imagerel stbi__psd_info
	DD	imagerel stbi__psd_info+327
	DD	imagerel $unwind$stbi__psd_info
$pdata$stbi__psd_is16 DD imagerel stbi__psd_is16
	DD	imagerel stbi__psd_is16+194
	DD	imagerel $unwind$stbi__psd_is16
$pdata$stbi__hdr_test DD imagerel stbi__hdr_test
	DD	imagerel stbi__hdr_test+87
	DD	imagerel $unwind$stbi__hdr_test
$pdata$stbi__hdr_load DD imagerel stbi__hdr_load
	DD	imagerel stbi__hdr_load+3037
	DD	imagerel $unwind$stbi__hdr_load
$pdata$stbi__hdr_info DD imagerel stbi__hdr_info
	DD	imagerel stbi__hdr_info+539
	DD	imagerel $unwind$stbi__hdr_info
$pdata$stbi__pic_test DD imagerel stbi__pic_test
	DD	imagerel stbi__pic_test+42
	DD	imagerel $unwind$stbi__pic_test
$pdata$stbi__pic_load DD imagerel stbi__pic_load
	DD	imagerel stbi__pic_load+777
	DD	imagerel $unwind$stbi__pic_load
$pdata$stbi__pic_info DD imagerel stbi__pic_info
	DD	imagerel stbi__pic_info+642
	DD	imagerel $unwind$stbi__pic_info
$pdata$stbi__gif_test DD imagerel stbi__gif_test
	DD	imagerel stbi__gif_test+42
	DD	imagerel $unwind$stbi__gif_test
$pdata$stbi__gif_load DD imagerel stbi__gif_load
	DD	imagerel stbi__gif_load+560
	DD	imagerel $unwind$stbi__gif_load
$pdata$stbi__load_gif_main DD imagerel stbi__load_gif_main
	DD	imagerel stbi__load_gif_main+1440
	DD	imagerel $unwind$stbi__load_gif_main
$pdata$stbi__gif_info DD imagerel stbi__gif_info
	DD	imagerel stbi__gif_info+54
	DD	imagerel $unwind$stbi__gif_info
$pdata$stbi__pnm_test DD imagerel stbi__pnm_test
	DD	imagerel stbi__pnm_test+91
	DD	imagerel $unwind$stbi__pnm_test
$pdata$stbi__pnm_load DD imagerel stbi__pnm_load
	DD	imagerel stbi__pnm_load+678
	DD	imagerel $unwind$stbi__pnm_load
$pdata$stbi__pnm_info DD imagerel stbi__pnm_info
	DD	imagerel stbi__pnm_info+379
	DD	imagerel $unwind$stbi__pnm_info
$pdata$stbi__pnm_is16 DD imagerel stbi__pnm_is16
	DD	imagerel stbi__pnm_is16+46
	DD	imagerel $unwind$stbi__pnm_is16
$pdata$stbi__malloc DD imagerel stbi__malloc
	DD	imagerel stbi__malloc+97
	DD	imagerel $unwind$stbi__malloc
$pdata$stbi__addsizes_valid DD imagerel stbi__addsizes_valid
	DD	imagerel stbi__addsizes_valid+62
	DD	imagerel $unwind$stbi__addsizes_valid
$pdata$stbi__mul2sizes_valid DD imagerel stbi__mul2sizes_valid
	DD	imagerel stbi__mul2sizes_valid+84
	DD	imagerel $unwind$stbi__mul2sizes_valid
$pdata$stbi__mad2sizes_valid DD imagerel stbi__mad2sizes_valid
	DD	imagerel stbi__mad2sizes_valid+85
	DD	imagerel $unwind$stbi__mad2sizes_valid
$pdata$stbi__mad3sizes_valid DD imagerel stbi__mad3sizes_valid
	DD	imagerel stbi__mad3sizes_valid+119
	DD	imagerel $unwind$stbi__mad3sizes_valid
$pdata$stbi__mad4sizes_valid DD imagerel stbi__mad4sizes_valid
	DD	imagerel stbi__mad4sizes_valid+153
	DD	imagerel $unwind$stbi__mad4sizes_valid
$pdata$stbi__malloc_mad2 DD imagerel stbi__malloc_mad2
	DD	imagerel stbi__malloc_mad2+71
	DD	imagerel $unwind$stbi__malloc_mad2
$pdata$stbi__malloc_mad3 DD imagerel stbi__malloc_mad3
	DD	imagerel stbi__malloc_mad3+86
	DD	imagerel $unwind$stbi__malloc_mad3
$pdata$stbi__malloc_mad4 DD imagerel stbi__malloc_mad4
	DD	imagerel stbi__malloc_mad4+99
	DD	imagerel $unwind$stbi__malloc_mad4
$pdata$stbi__ldr_to_hdr DD imagerel stbi__ldr_to_hdr
	DD	imagerel stbi__ldr_to_hdr+698
	DD	imagerel $unwind$stbi__ldr_to_hdr
$pdata$stbi__hdr_to_ldr DD imagerel stbi__hdr_to_ldr
	DD	imagerel stbi__hdr_to_ldr+776
	DD	imagerel $unwind$stbi__hdr_to_ldr
$pdata$stbi__load_main DD imagerel stbi__load_main
	DD	imagerel stbi__load_main+885
	DD	imagerel $unwind$stbi__load_main
$pdata$stbi__convert_16_to_8 DD imagerel stbi__convert_16_to_8
	DD	imagerel stbi__convert_16_to_8+290
	DD	imagerel $unwind$stbi__convert_16_to_8
$pdata$stbi__convert_8_to_16 DD imagerel stbi__convert_8_to_16
	DD	imagerel stbi__convert_8_to_16+308
	DD	imagerel $unwind$stbi__convert_8_to_16
$pdata$stbi__vertical_flip DD imagerel stbi__vertical_flip
	DD	imagerel stbi__vertical_flip+410
	DD	imagerel $unwind$stbi__vertical_flip
$pdata$stbi__vertical_flip_slices DD imagerel stbi__vertical_flip_slices
	DD	imagerel stbi__vertical_flip_slices+133
	DD	imagerel $unwind$stbi__vertical_flip_slices
$pdata$stbi__load_and_postprocess_8bit DD imagerel stbi__load_and_postprocess_8bit
	DD	imagerel stbi__load_and_postprocess_8bit+453
	DD	imagerel $unwind$stbi__load_and_postprocess_8bit
$pdata$stbi__load_and_postprocess_16bit DD imagerel stbi__load_and_postprocess_16bit
	DD	imagerel stbi__load_and_postprocess_16bit+459
	DD	imagerel $unwind$stbi__load_and_postprocess_16bit
$pdata$stbi__float_postprocess DD imagerel stbi__float_postprocess
	DD	imagerel stbi__float_postprocess+194
	DD	imagerel $unwind$stbi__float_postprocess
$pdata$stbi__fopen DD imagerel stbi__fopen
	DD	imagerel stbi__fopen+57
	DD	imagerel $unwind$stbi__fopen
$pdata$stbi__loadf_main DD imagerel stbi__loadf_main
	DD	imagerel stbi__loadf_main+377
	DD	imagerel $unwind$stbi__loadf_main
$pdata$stbi__get8 DD imagerel stbi__get8
	DD	imagerel stbi__get8+169
	DD	imagerel $unwind$stbi__get8
$pdata$stbi__at_eof DD imagerel stbi__at_eof
	DD	imagerel stbi__at_eof+117
	DD	imagerel $unwind$stbi__at_eof
$pdata$stbi__skip DD imagerel stbi__skip
	DD	imagerel stbi__skip+205
	DD	imagerel $unwind$stbi__skip
$pdata$stbi__getn DD imagerel stbi__getn
	DD	imagerel stbi__getn+345
	DD	imagerel $unwind$stbi__getn
$pdata$stbi__get16be DD imagerel stbi__get16be
	DD	imagerel stbi__get16be+63
	DD	imagerel $unwind$stbi__get16be
$pdata$stbi__get32be DD imagerel stbi__get32be
	DD	imagerel stbi__get32be+57
	DD	imagerel $unwind$stbi__get32be
$pdata$stbi__get16le DD imagerel stbi__get16le
	DD	imagerel stbi__get16le+55
	DD	imagerel $unwind$stbi__get16le
$pdata$stbi__get32le DD imagerel stbi__get32le
	DD	imagerel stbi__get32le+57
	DD	imagerel $unwind$stbi__get32le
$pdata$stbi__convert_format DD imagerel stbi__convert_format
	DD	imagerel stbi__convert_format+2976
	DD	imagerel $unwind$stbi__convert_format
$pdata$stbi__convert_format16 DD imagerel stbi__convert_format16
	DD	imagerel stbi__convert_format16+3028
	DD	imagerel $unwind$stbi__convert_format16
$pdata$stbi__build_huffman DD imagerel stbi__build_huffman
	DD	imagerel stbi__build_huffman+648
	DD	imagerel $unwind$stbi__build_huffman
$pdata$stbi__build_fast_ac DD imagerel stbi__build_fast_ac
	DD	imagerel stbi__build_fast_ac+367
	DD	imagerel $unwind$stbi__build_fast_ac
$pdata$stbi__grow_buffer_unsafe DD imagerel stbi__grow_buffer_unsafe
	DD	imagerel stbi__grow_buffer_unsafe+264
	DD	imagerel $unwind$stbi__grow_buffer_unsafe
$pdata$stbi__jpeg_huff_decode DD imagerel stbi__jpeg_huff_decode
	DD	imagerel stbi__jpeg_huff_decode+661
	DD	imagerel $unwind$stbi__jpeg_huff_decode
$pdata$stbi__extend_receive DD imagerel stbi__extend_receive
	DD	imagerel stbi__extend_receive+209
	DD	imagerel $unwind$stbi__extend_receive
$pdata$stbi__jpeg_get_bits DD imagerel stbi__jpeg_get_bits
	DD	imagerel stbi__jpeg_get_bits+164
	DD	imagerel $unwind$stbi__jpeg_get_bits
$pdata$stbi__jpeg_get_bit DD imagerel stbi__jpeg_get_bit
	DD	imagerel stbi__jpeg_get_bit+110
	DD	imagerel $unwind$stbi__jpeg_get_bit
$pdata$stbi__jpeg_decode_block DD imagerel stbi__jpeg_decode_block
	DD	imagerel stbi__jpeg_decode_block+740
	DD	imagerel $unwind$stbi__jpeg_decode_block
$pdata$stbi__jpeg_decode_block_prog_dc DD imagerel stbi__jpeg_decode_block_prog_dc
	DD	imagerel stbi__jpeg_decode_block_prog_dc+405
	DD	imagerel $unwind$stbi__jpeg_decode_block_prog_dc
$pdata$stbi__jpeg_decode_block_prog_ac DD imagerel stbi__jpeg_decode_block_prog_ac
	DD	imagerel stbi__jpeg_decode_block_prog_ac+1618
	DD	imagerel $unwind$stbi__jpeg_decode_block_prog_ac
$pdata$stbi__idct_block DD imagerel stbi__idct_block
	DD	imagerel stbi__idct_block+2715
	DD	imagerel $unwind$stbi__idct_block
$pdata$stbi__idct_simd DD imagerel stbi__idct_simd
	DD	imagerel stbi__idct_simd+6280
	DD	imagerel $unwind$stbi__idct_simd
$pdata$stbi__get_marker DD imagerel stbi__get_marker
	DD	imagerel stbi__get_marker+137
	DD	imagerel $unwind$stbi__get_marker
$pdata$stbi__jpeg_reset DD imagerel stbi__jpeg_reset
	DD	imagerel stbi__jpeg_reset+237
	DD	imagerel $unwind$stbi__jpeg_reset
$pdata$stbi__parse_entropy_coded_data DD imagerel stbi__parse_entropy_coded_data
	DD	imagerel stbi__parse_entropy_coded_data+3156
	DD	imagerel $unwind$stbi__parse_entropy_coded_data
$pdata$stbi__jpeg_dequantize DD imagerel stbi__jpeg_dequantize
	DD	imagerel stbi__jpeg_dequantize+86
	DD	imagerel $unwind$stbi__jpeg_dequantize
$pdata$stbi__jpeg_finish DD imagerel stbi__jpeg_finish
	DD	imagerel stbi__jpeg_finish+457
	DD	imagerel $unwind$stbi__jpeg_finish
$pdata$stbi__process_marker DD imagerel stbi__process_marker
	DD	imagerel stbi__process_marker+1716
	DD	imagerel $unwind$stbi__process_marker
$pdata$stbi__process_scan_header DD imagerel stbi__process_scan_header
	DD	imagerel stbi__process_scan_header+812
	DD	imagerel $unwind$stbi__process_scan_header
$pdata$stbi__free_jpeg_components DD imagerel stbi__free_jpeg_components
	DD	imagerel stbi__free_jpeg_components+653
	DD	imagerel $unwind$stbi__free_jpeg_components
$pdata$stbi__process_frame_header DD imagerel stbi__process_frame_header
	DD	imagerel stbi__process_frame_header+2318
	DD	imagerel $unwind$stbi__process_frame_header
$pdata$stbi__decode_jpeg_header DD imagerel stbi__decode_jpeg_header
	DD	imagerel stbi__decode_jpeg_header+345
	DD	imagerel $unwind$stbi__decode_jpeg_header
$pdata$stbi__decode_jpeg_image DD imagerel stbi__decode_jpeg_image
	DD	imagerel stbi__decode_jpeg_image+487
	DD	imagerel $unwind$stbi__decode_jpeg_image
$pdata$stbi__resample_row_v_2 DD imagerel stbi__resample_row_v_2
	DD	imagerel stbi__resample_row_v_2+110
	DD	imagerel $unwind$stbi__resample_row_v_2
$pdata$stbi__resample_row_h_2 DD imagerel stbi__resample_row_h_2
	DD	imagerel stbi__resample_row_h_2+474
	DD	imagerel $unwind$stbi__resample_row_h_2
$pdata$stbi__resample_row_hv_2 DD imagerel stbi__resample_row_hv_2
	DD	imagerel stbi__resample_row_hv_2+383
	DD	imagerel $unwind$stbi__resample_row_hv_2
$pdata$stbi__resample_row_hv_2_simd DD imagerel stbi__resample_row_hv_2_simd
	DD	imagerel stbi__resample_row_hv_2_simd+1205
	DD	imagerel $unwind$stbi__resample_row_hv_2_simd
$pdata$stbi__resample_row_generic DD imagerel stbi__resample_row_generic
	DD	imagerel stbi__resample_row_generic+131
	DD	imagerel $unwind$stbi__resample_row_generic
$pdata$stbi__YCbCr_to_RGB_row DD imagerel stbi__YCbCr_to_RGB_row
	DD	imagerel stbi__YCbCr_to_RGB_row+451
	DD	imagerel $unwind$stbi__YCbCr_to_RGB_row
$pdata$stbi__YCbCr_to_RGB_simd DD imagerel stbi__YCbCr_to_RGB_simd
	DD	imagerel stbi__YCbCr_to_RGB_simd+1356
	DD	imagerel $unwind$stbi__YCbCr_to_RGB_simd
$pdata$stbi__setup_jpeg DD imagerel stbi__setup_jpeg
	DD	imagerel stbi__setup_jpeg+137
	DD	imagerel $unwind$stbi__setup_jpeg
$pdata$stbi__cleanup_jpeg DD imagerel stbi__cleanup_jpeg
	DD	imagerel stbi__cleanup_jpeg+38
	DD	imagerel $unwind$stbi__cleanup_jpeg
$pdata$stbi__blinn_8x8 DD imagerel stbi__blinn_8x8
	DD	imagerel stbi__blinn_8x8+54
	DD	imagerel $unwind$stbi__blinn_8x8
$pdata$load_jpeg_image DD imagerel load_jpeg_image
	DD	imagerel load_jpeg_image+4520
	DD	imagerel $unwind$load_jpeg_image
$pdata$stbi__jpeg_info_raw DD imagerel stbi__jpeg_info_raw
	DD	imagerel stbi__jpeg_info_raw+172
	DD	imagerel $unwind$stbi__jpeg_info_raw
$pdata$stbi__bit_reverse DD imagerel stbi__bit_reverse
	DD	imagerel stbi__bit_reverse+71
	DD	imagerel $unwind$stbi__bit_reverse
$pdata$stbi__zbuild_huffman DD imagerel stbi__zbuild_huffman
	DD	imagerel stbi__zbuild_huffman+896
	DD	imagerel $unwind$stbi__zbuild_huffman
$pdata$stbi__zeof DD imagerel stbi__zeof
	DD	imagerel stbi__zeof+52
	DD	imagerel $unwind$stbi__zeof
$pdata$stbi__zget8 DD imagerel stbi__zget8
	DD	imagerel stbi__zget8+77
	DD	imagerel $unwind$stbi__zget8
$pdata$stbi__fill_bits DD imagerel stbi__fill_bits
	DD	imagerel stbi__fill_bits+142
	DD	imagerel $unwind$stbi__fill_bits
$pdata$stbi__zreceive DD imagerel stbi__zreceive
	DD	imagerel stbi__zreceive+143
	DD	imagerel $unwind$stbi__zreceive
$pdata$stbi__zhuffman_decode_slowpath DD imagerel stbi__zhuffman_decode_slowpath
	DD	imagerel stbi__zhuffman_decode_slowpath+290
	DD	imagerel $unwind$stbi__zhuffman_decode_slowpath
$pdata$stbi__zhuffman_decode DD imagerel stbi__zhuffman_decode
	DD	imagerel stbi__zhuffman_decode+193
	DD	imagerel $unwind$stbi__zhuffman_decode
$pdata$stbi__zexpand DD imagerel stbi__zexpand
	DD	imagerel stbi__zexpand+450
	DD	imagerel $unwind$stbi__zexpand
$pdata$stbi__parse_huffman_block DD imagerel stbi__parse_huffman_block
	DD	imagerel stbi__parse_huffman_block+707
	DD	imagerel $unwind$stbi__parse_huffman_block
$pdata$stbi__compute_huffman_codes DD imagerel stbi__compute_huffman_codes
	DD	imagerel stbi__compute_huffman_codes+787
	DD	imagerel $unwind$stbi__compute_huffman_codes
$pdata$stbi__parse_uncompressed_block DD imagerel stbi__parse_uncompressed_block
	DD	imagerel stbi__parse_uncompressed_block+498
	DD	imagerel $unwind$stbi__parse_uncompressed_block
$pdata$stbi__parse_zlib_header DD imagerel stbi__parse_zlib_header
	DD	imagerel stbi__parse_zlib_header+178
	DD	imagerel $unwind$stbi__parse_zlib_header
$pdata$stbi__parse_zlib DD imagerel stbi__parse_zlib
	DD	imagerel stbi__parse_zlib+296
	DD	imagerel $unwind$stbi__parse_zlib
$pdata$stbi__do_zlib DD imagerel stbi__do_zlib
	DD	imagerel stbi__do_zlib+108
	DD	imagerel $unwind$stbi__do_zlib
$pdata$stbi__get_chunk_header DD imagerel stbi__get_chunk_header
	DD	imagerel stbi__get_chunk_header+47
	DD	imagerel $unwind$stbi__get_chunk_header
$pdata$stbi__check_png_header DD imagerel stbi__check_png_header
	DD	imagerel stbi__check_png_header+95
	DD	imagerel $unwind$stbi__check_png_header
$pdata$stbi__paeth DD imagerel stbi__paeth
	DD	imagerel stbi__paeth+157
	DD	imagerel $unwind$stbi__paeth
$pdata$stbi__create_png_image_raw DD imagerel stbi__create_png_image_raw
	DD	imagerel stbi__create_png_image_raw+6296
	DD	imagerel $unwind$stbi__create_png_image_raw
$pdata$stbi__create_png_image DD imagerel stbi__create_png_image
	DD	imagerel stbi__create_png_image+1431
	DD	imagerel $unwind$stbi__create_png_image
$pdata$stbi__compute_transparency DD imagerel stbi__compute_transparency
	DD	imagerel stbi__compute_transparency+450
	DD	imagerel $unwind$stbi__compute_transparency
$pdata$stbi__compute_transparency16 DD imagerel stbi__compute_transparency16
	DD	imagerel stbi__compute_transparency16+453
	DD	imagerel $unwind$stbi__compute_transparency16
$pdata$stbi__expand_png_palette DD imagerel stbi__expand_png_palette
	DD	imagerel stbi__expand_png_palette+682
	DD	imagerel $unwind$stbi__expand_png_palette
$pdata$stbi__de_iphone DD imagerel stbi__de_iphone
	DD	imagerel stbi__de_iphone+800
	DD	imagerel $unwind$stbi__de_iphone
$pdata$stbi__parse_png_file DD imagerel stbi__parse_png_file
	DD	imagerel stbi__parse_png_file+3649
	DD	imagerel $unwind$stbi__parse_png_file
$pdata$stbi__do_png DD imagerel stbi__do_png
	DD	imagerel stbi__do_png+913
	DD	imagerel $unwind$stbi__do_png
$pdata$stbi__png_info_raw DD imagerel stbi__png_info_raw
	DD	imagerel stbi__png_info_raw+150
	DD	imagerel $unwind$stbi__png_info_raw
$pdata$stbi__bmp_test_raw DD imagerel stbi__bmp_test_raw
	DD	imagerel stbi__bmp_test_raw+180
	DD	imagerel $unwind$stbi__bmp_test_raw
$pdata$stbi__high_bit DD imagerel stbi__high_bit
	DD	imagerel stbi__high_bit+169
	DD	imagerel $unwind$stbi__high_bit
$pdata$stbi__shiftsigned DD imagerel stbi__shiftsigned
	DD	imagerel stbi__shiftsigned+206
	DD	imagerel $unwind$stbi__shiftsigned
$pdata$stbi__bmp_parse_header DD imagerel stbi__bmp_parse_header
	DD	imagerel stbi__bmp_parse_header+1589
	DD	imagerel $unwind$stbi__bmp_parse_header
$pdata$stbi__tga_get_comp DD imagerel stbi__tga_get_comp
	DD	imagerel stbi__tga_get_comp+144
	DD	imagerel $unwind$stbi__tga_get_comp
$pdata$stbi__tga_read_rgb16 DD imagerel stbi__tga_read_rgb16
	DD	imagerel stbi__tga_read_rgb16+197
	DD	imagerel $unwind$stbi__tga_read_rgb16
$pdata$stbi__psd_decode_rle DD imagerel stbi__psd_decode_rle
	DD	imagerel stbi__psd_decode_rle+318
	DD	imagerel $unwind$stbi__psd_decode_rle
$pdata$stbi__pic_is4 DD imagerel stbi__pic_is4
	DD	imagerel stbi__pic_is4+88
	DD	imagerel $unwind$stbi__pic_is4
$pdata$stbi__pic_test_core DD imagerel stbi__pic_test_core
	DD	imagerel stbi__pic_test_core+108
	DD	imagerel $unwind$stbi__pic_test_core
$pdata$stbi__readval DD imagerel stbi__readval
	DD	imagerel stbi__readval+171
	DD	imagerel $unwind$stbi__readval
$pdata$stbi__copyval DD imagerel stbi__copyval
	DD	imagerel stbi__copyval+108
	DD	imagerel $unwind$stbi__copyval
$pdata$stbi__pic_load_core DD imagerel stbi__pic_load_core
	DD	imagerel stbi__pic_load_core+1624
	DD	imagerel $unwind$stbi__pic_load_core
$pdata$stbi__gif_test_raw DD imagerel stbi__gif_test_raw
	DD	imagerel stbi__gif_test_raw+152
	DD	imagerel $unwind$stbi__gif_test_raw
$pdata$stbi__gif_parse_colortable DD imagerel stbi__gif_parse_colortable
	DD	imagerel stbi__gif_parse_colortable+235
	DD	imagerel $unwind$stbi__gif_parse_colortable
$pdata$stbi__gif_header DD imagerel stbi__gif_header
	DD	imagerel stbi__gif_header+524
	DD	imagerel $unwind$stbi__gif_header
$pdata$stbi__gif_info_raw DD imagerel stbi__gif_info_raw
	DD	imagerel stbi__gif_info_raw+353
	DD	imagerel $unwind$stbi__gif_info_raw
$pdata$stbi__out_gif_code DD imagerel stbi__out_gif_code
	DD	imagerel stbi__out_gif_code+662
	DD	imagerel $unwind$stbi__out_gif_code
$pdata$stbi__process_gif_raster DD imagerel stbi__process_gif_raster
	DD	imagerel stbi__process_gif_raster+1123
	DD	imagerel $unwind$stbi__process_gif_raster
$pdata$stbi__gif_load_next DD imagerel stbi__gif_load_next
	DD	imagerel stbi__gif_load_next+2555
	DD	imagerel $unwind$stbi__gif_load_next
$pdata$stbi__load_gif_main_outofmem DD imagerel stbi__load_gif_main_outofmem
	DD	imagerel stbi__load_gif_main_outofmem+549
	DD	imagerel $unwind$stbi__load_gif_main_outofmem
$pdata$stbi__hdr_test_core DD imagerel stbi__hdr_test_core
	DD	imagerel stbi__hdr_test_core+109
	DD	imagerel $unwind$stbi__hdr_test_core
$pdata$stbi__hdr_gettoken DD imagerel stbi__hdr_gettoken
	DD	imagerel stbi__hdr_gettoken+179
	DD	imagerel $unwind$stbi__hdr_gettoken
$pdata$stbi__hdr_convert DD imagerel stbi__hdr_convert
	DD	imagerel stbi__hdr_convert+608
	DD	imagerel $unwind$stbi__hdr_convert
$pdata$stbi__pnm_isspace DD imagerel stbi__pnm_isspace
	DD	imagerel stbi__pnm_isspace+92
	DD	imagerel $unwind$stbi__pnm_isspace
$pdata$stbi__pnm_skip_whitespace DD imagerel stbi__pnm_skip_whitespace
	DD	imagerel stbi__pnm_skip_whitespace+162
	DD	imagerel $unwind$stbi__pnm_skip_whitespace
$pdata$stbi__pnm_isdigit DD imagerel stbi__pnm_isdigit
	DD	imagerel stbi__pnm_isdigit+52
	DD	imagerel $unwind$stbi__pnm_isdigit
$pdata$stbi__pnm_getinteger DD imagerel stbi__pnm_getinteger
	DD	imagerel stbi__pnm_getinteger+102
	DD	imagerel $unwind$stbi__pnm_getinteger
$pdata$stbi__info_main DD imagerel stbi__info_main
	DD	imagerel stbi__info_main+380
	DD	imagerel $unwind$stbi__info_main
$pdata$stbi__is_16_main DD imagerel stbi__is_16_main
	DD	imagerel stbi__is_16_main+79
	DD	imagerel $unwind$stbi__is_16_main
$pdata$stbi_write_png DD imagerel $LN5
	DD	imagerel $LN5+351
	DD	imagerel $unwind$stbi_write_png
$pdata$stbi_write_bmp DD imagerel $LN5
	DD	imagerel $LN5+179
	DD	imagerel $unwind$stbi_write_bmp
$pdata$stbi_write_tga DD imagerel $LN5
	DD	imagerel $LN5+179
	DD	imagerel $unwind$stbi_write_tga
$pdata$stbi_write_hdr DD imagerel $LN5
	DD	imagerel $LN5+179
	DD	imagerel $unwind$stbi_write_hdr
$pdata$stbi_write_jpg DD imagerel $LN5
	DD	imagerel $LN5+190
	DD	imagerel $unwind$stbi_write_jpg
$pdata$stbi_write_png_to_func DD imagerel $LN4
	DD	imagerel $LN4+218
	DD	imagerel $unwind$stbi_write_png_to_func
$pdata$stbi_write_bmp_to_func DD imagerel $LN3
	DD	imagerel $LN3+160
	DD	imagerel $unwind$stbi_write_bmp_to_func
$pdata$stbi_write_tga_to_func DD imagerel $LN3
	DD	imagerel $LN3+160
	DD	imagerel $unwind$stbi_write_tga_to_func
$pdata$stbi_write_hdr_to_func DD imagerel $LN3
	DD	imagerel $LN3+160
	DD	imagerel $unwind$stbi_write_hdr_to_func
$pdata$stbi_write_jpg_to_func DD imagerel $LN3
	DD	imagerel $LN3+171
	DD	imagerel $unwind$stbi_write_jpg_to_func
$pdata$stbi__stdio_write DD imagerel stbi__stdio_write
	DD	imagerel stbi__stdio_write+52
	DD	imagerel $unwind$stbi__stdio_write
$pdata$stbiw__fopen DD imagerel stbiw__fopen
	DD	imagerel stbiw__fopen+57
	DD	imagerel $unwind$stbiw__fopen
$pdata$stbi__start_write_file DD imagerel stbi__start_write_file
	DD	imagerel stbi__start_write_file+93
	DD	imagerel $unwind$stbi__start_write_file
$pdata$stbi__end_write_file DD imagerel stbi__end_write_file
	DD	imagerel stbi__end_write_file+28
	DD	imagerel $unwind$stbi__end_write_file
$pdata$stbiw__writefv DD imagerel stbiw__writefv
	DD	imagerel stbiw__writefv+475
	DD	imagerel $unwind$stbiw__writefv
$pdata$stbiw__writef DD imagerel stbiw__writef
	DD	imagerel stbiw__writef+68
	DD	imagerel $unwind$stbiw__writef
$pdata$stbiw__write_flush DD imagerel stbiw__write_flush
	DD	imagerel stbiw__write_flush+74
	DD	imagerel $unwind$stbiw__write_flush
$pdata$stbiw__putc DD imagerel stbiw__putc
	DD	imagerel stbiw__putc+45
	DD	imagerel $unwind$stbiw__putc
$pdata$stbiw__write1 DD imagerel stbiw__write1
	DD	imagerel stbiw__write1+87
	DD	imagerel $unwind$stbiw__write1
$pdata$stbiw__write3 DD imagerel stbiw__write3
	DD	imagerel stbiw__write3+149
	DD	imagerel $unwind$stbiw__write3
$pdata$stbiw__write_pixel DD imagerel stbiw__write_pixel
	DD	imagerel stbiw__write_pixel+519
	DD	imagerel $unwind$stbiw__write_pixel
$pdata$stbiw__write_pixels DD imagerel stbiw__write_pixels
	DD	imagerel stbiw__write_pixels+319
	DD	imagerel $unwind$stbiw__write_pixels
$pdata$stbiw__outfile DD imagerel stbiw__outfile
	DD	imagerel stbiw__outfile+208
	DD	imagerel $unwind$stbiw__outfile
$pdata$stbi_write_bmp_core DD imagerel stbi_write_bmp_core
	DD	imagerel stbi_write_bmp_core+902
	DD	imagerel $unwind$stbi_write_bmp_core
$pdata$stbi_write_tga_core DD imagerel stbi_write_tga_core
	DD	imagerel stbi_write_tga_core+1764
	DD	imagerel $unwind$stbi_write_tga_core
$pdata$stbiw__linear_to_rgbe DD imagerel stbiw__linear_to_rgbe
	DD	imagerel stbiw__linear_to_rgbe+582
	DD	imagerel $unwind$stbiw__linear_to_rgbe
$pdata$stbiw__write_run_data DD imagerel stbiw__write_run_data
	DD	imagerel stbiw__write_run_data+138
	DD	imagerel $unwind$stbiw__write_run_data
$pdata$stbiw__write_dump_data DD imagerel stbiw__write_dump_data
	DD	imagerel stbiw__write_dump_data+126
	DD	imagerel $unwind$stbiw__write_dump_data
$pdata$stbiw__write_hdr_scanline DD imagerel stbiw__write_hdr_scanline
	DD	imagerel stbiw__write_hdr_scanline+1547
	DD	imagerel $unwind$stbiw__write_hdr_scanline
$pdata$stbi_write_hdr_core DD imagerel stbi_write_hdr_core
	DD	imagerel stbi_write_hdr_core+587
	DD	imagerel $unwind$stbi_write_hdr_core
$pdata$stbiw__sbgrowf DD imagerel stbiw__sbgrowf
	DD	imagerel stbiw__sbgrowf+399
	DD	imagerel $unwind$stbiw__sbgrowf
$pdata$stbiw__zlib_flushf DD imagerel stbiw__zlib_flushf
	DD	imagerel stbiw__zlib_flushf+244
	DD	imagerel $unwind$stbiw__zlib_flushf
$pdata$stbiw__zlib_bitrev DD imagerel stbiw__zlib_bitrev
	DD	imagerel stbiw__zlib_bitrev+81
	DD	imagerel $unwind$stbiw__zlib_bitrev
$pdata$stbiw__zlib_countm DD imagerel stbiw__zlib_countm
	DD	imagerel stbiw__zlib_countm+96
	DD	imagerel $unwind$stbiw__zlib_countm
$pdata$stbiw__zhash DD imagerel stbiw__zhash
	DD	imagerel stbiw__zhash+180
	DD	imagerel $unwind$stbiw__zhash
$pdata$stbi_zlib_compress DD imagerel $LN94
	DD	imagerel $LN94+5829
	DD	imagerel $unwind$stbi_zlib_compress
$pdata$stbiw__crc32 DD imagerel stbiw__crc32
	DD	imagerel stbiw__crc32+108
	DD	imagerel $unwind$stbiw__crc32
$pdata$stbiw__wpcrc DD imagerel stbiw__wpcrc
	DD	imagerel stbiw__wpcrc+204
	DD	imagerel $unwind$stbiw__wpcrc
$pdata$stbiw__paeth DD imagerel stbiw__paeth
	DD	imagerel stbiw__paeth+172
	DD	imagerel $unwind$stbiw__paeth
$pdata$stbiw__encode_png_line DD imagerel stbiw__encode_png_line
	DD	imagerel stbiw__encode_png_line+1576
	DD	imagerel $unwind$stbiw__encode_png_line
$pdata$stbi_write_png_to_mem DD imagerel $LN23
	DD	imagerel $LN23+3123
	DD	imagerel $unwind$stbi_write_png_to_mem
$pdata$stbiw__jpg_writeBits DD imagerel stbiw__jpg_writeBits
	DD	imagerel stbiw__jpg_writeBits+230
	DD	imagerel $unwind$stbiw__jpg_writeBits
$pdata$stbiw__jpg_DCT DD imagerel stbiw__jpg_DCT
	DD	imagerel stbiw__jpg_DCT+837
	DD	imagerel $unwind$stbiw__jpg_DCT
$pdata$stbiw__jpg_calcBits DD imagerel stbiw__jpg_calcBits
	DD	imagerel stbiw__jpg_calcBits+229
	DD	imagerel $unwind$stbiw__jpg_calcBits
$pdata$stbiw__jpg_processDU DD imagerel stbiw__jpg_processDU
	DD	imagerel stbiw__jpg_processDU+1769
	DD	imagerel $unwind$stbiw__jpg_processDU
$pdata$stbi_write_jpg_core DD imagerel stbi_write_jpg_core
	DD	imagerel stbi_write_jpg_core+4687
	DD	imagerel $unwind$stbi_write_jpg_core
$pdata$rxvec3 DD imagerel $LN3
	DD	imagerel $LN3+72
	DD	imagerel $unwind$rxvec3
$pdata$rxvec3_xyz DD imagerel $LN3
	DD	imagerel $LN3+123
	DD	imagerel $unwind$rxvec3_xyz
$pdata$rxvec3_xy DD imagerel $LN3
	DD	imagerel $LN3+75
	DD	imagerel $unwind$rxvec3_xy
$pdata$rxvec3_x DD imagerel $LN3
	DD	imagerel $LN3+66
	DD	imagerel $unwind$rxvec3_x
$pdata$rxvec3_y DD imagerel $LN3
	DD	imagerel $LN3+66
	DD	imagerel $unwind$rxvec3_y
$pdata$rxvec3_z DD imagerel $LN3
	DD	imagerel $LN3+66
	DD	imagerel $unwind$rxvec3_z
$pdata$rxmatrix_identity DD imagerel $LN3
	DD	imagerel $LN3+570
	DD	imagerel $unwind$rxmatrix_identity
$pdata$rxmatrix_multiply DD imagerel $LN9
	DD	imagerel $LN9+470
	DD	imagerel $unwind$rxmatrix_multiply
$pdata$rxremix DD imagerel $LN3
	DD	imagerel $LN3+73
	DD	imagerel $unwind$rxremix
$pdata$rxclamp DD imagerel $LN7
	DD	imagerel $LN7+110
	DD	imagerel $unwind$rxclamp
$pdata$rxclampi DD imagerel $LN7
	DD	imagerel $LN7+79
	DD	imagerel $unwind$rxclampi
$pdata$rxmax DD	imagerel $LN5
	DD	imagerel $LN5+63
	DD	imagerel $unwind$rxmax
$pdata$rxmin DD	imagerel $LN5
	DD	imagerel $LN5+63
	DD	imagerel $unwind$rxmin
$pdata$rxmaxi DD imagerel $LN5
	DD	imagerel $LN5+46
	DD	imagerel $unwind$rxmaxi
$pdata$rxmini DD imagerel $LN5
	DD	imagerel $LN5+46
	DD	imagerel $unwind$rxmini
$pdata$rxvector_cross DD imagerel $LN3
	DD	imagerel $LN3+207
	DD	imagerel $unwind$rxvector_cross
$pdata$rxvector_length DD imagerel $LN3
	DD	imagerel $LN3+78
	DD	imagerel $unwind$rxvector_length
$pdata$rxvec2_len DD imagerel $LN3
	DD	imagerel $LN3+34
	DD	imagerel $unwind$rxvec2_len
$pdata$rxvec2_add DD imagerel $LN3
	DD	imagerel $LN3+58
	DD	imagerel $unwind$rxvec2_add
$pdata$rxvec2_sub DD imagerel $LN3
	DD	imagerel $LN3+58
	DD	imagerel $unwind$rxvec2_sub
$pdata$rxvector_add DD imagerel $LN3
	DD	imagerel $LN3+155
	DD	imagerel $unwind$rxvector_add
$pdata$rxvector_sub DD imagerel $LN3
	DD	imagerel $LN3+155
	DD	imagerel $unwind$rxvector_sub
$pdata$rxvector_mul DD imagerel $LN3
	DD	imagerel $LN3+155
	DD	imagerel $unwind$rxvector_mul
$pdata$rxvector_downscale DD imagerel $LN3
	DD	imagerel $LN3+145
	DD	imagerel $unwind$rxvector_downscale
$pdata$rxvector_scale DD imagerel $LN3
	DD	imagerel $LN3+145
	DD	imagerel $unwind$rxvector_scale
$pdata$rxvector_negate DD imagerel $LN3
	DD	imagerel $LN3+142
	DD	imagerel $unwind$rxvector_negate
$pdata$rxvector_min DD imagerel $LN9
	DD	imagerel $LN9+254
	DD	imagerel $unwind$rxvector_min
$pdata$rxvector_max DD imagerel $LN9
	DD	imagerel $LN9+254
	DD	imagerel $unwind$rxvector_max
$pdata$rxvector_abs DD imagerel $LN9
	DD	imagerel $LN9+271
	DD	imagerel $unwind$rxvector_abs
$pdata$rxvector_normalize DD imagerel $LN5
	DD	imagerel $LN5+183
	DD	imagerel $unwind$rxvector_normalize
$pdata$rxmatrix_projection DD imagerel $LN3
	DD	imagerel $LN3+496
	DD	imagerel $unwind$rxmatrix_projection
$pdata$rxmatrix_rotZ DD imagerel $LN3
	DD	imagerel $LN3+310
	DD	imagerel $unwind$rxmatrix_rotZ
$pdata$rxmatrix_rotY DD imagerel $LN3
	DD	imagerel $LN3+310
	DD	imagerel $unwind$rxmatrix_rotY
$pdata$rxmatrix_rotX DD imagerel $LN3
	DD	imagerel $LN3+306
	DD	imagerel $unwind$rxmatrix_rotX
$pdata$rxmatrix_translate_xyz DD imagerel $LN3
	DD	imagerel $LN3+246
	DD	imagerel $unwind$rxmatrix_translate_xyz
$pdata$rxmatrix_flip_vertically DD imagerel $LN3
	DD	imagerel $LN3+153
	DD	imagerel $unwind$rxmatrix_flip_vertically
$pdata$rxmul_matvec DD imagerel $LN3
	DD	imagerel $LN3+767
	DD	imagerel $unwind$rxmul_matvec
$pdata$rxadd_vec2 DD imagerel $LN3
	DD	imagerel $LN3+58
	DD	imagerel $unwind$rxadd_vec2
$pdata$rxmul_vec2 DD imagerel $LN3
	DD	imagerel $LN3+58
	DD	imagerel $unwind$rxmul_vec2
$pdata$rxvec2_xy DD imagerel $LN3
	DD	imagerel $LN3+44
	DD	imagerel $unwind$rxvec2_xy
$pdata$rxvec2i_vec2 DD imagerel $LN3
	DD	imagerel $LN3+41
	DD	imagerel $unwind$rxvec2i_vec2
$pdata$rxlinker_register_terminal DD imagerel $LN7
	DD	imagerel $LN7+302
	DD	imagerel $unwind$rxlinker_register_terminal
$pdata$rxlinker_onlyquery_terminal DD imagerel $LN4
	DD	imagerel $LN4+213
	DD	imagerel $unwind$rxlinker_onlyquery_terminal
$pdata$rxlinker_labelshas_terminal DD imagerel $LN4
	DD	imagerel $LN4+59
	DD	imagerel $unwind$rxlinker_labelshas_terminal
$pdata$rxlinker_labelsadd_terminal DD imagerel $LN6
	DD	imagerel $LN6+93
	DD	imagerel $unwind$rxlinker_labelsadd_terminal
$pdata$rxlinker_labelsrem_terminal DD imagerel $LN6
	DD	imagerel $LN6+93
	DD	imagerel $unwind$rxlinker_labelsrem_terminal
$pdata$rxlinker_resolve_terminal DD imagerel $LN18
	DD	imagerel $LN18+859
	DD	imagerel $unwind$rxlinker_resolve_terminal
$pdata$rxtexture_load DD imagerel $LN4
	DD	imagerel $LN4+254
	DD	imagerel $unwind$rxtexture_load
$pdata$rxtexture_create_untyped DD imagerel rxtexture_create_untyped
	DD	imagerel rxtexture_create_untyped+1212
	DD	imagerel $unwind$rxtexture_create_untyped
$pdata$rxtexture_create_ex DD imagerel rxtexture_create_ex
	DD	imagerel rxtexture_create_ex+161
	DD	imagerel $unwind$rxtexture_create_ex
$pdata$rxtexture_create DD imagerel rxtexture_create
	DD	imagerel rxtexture_create+99
	DD	imagerel $unwind$rxtexture_create
$pdata$rxtexture_apply DD imagerel rxtexture_apply
	DD	imagerel rxtexture_apply+480
	DD	imagerel $unwind$rxtexture_apply
$pdata$rxtexture_bind DD imagerel rxtexture_bind
	DD	imagerel rxtexture_bind+50
	DD	imagerel $unwind$rxtexture_bind
$pdata$rxtexture_borrow DD imagerel rxtexture_borrow
	DD	imagerel rxtexture_borrow+442
	DD	imagerel $unwind$rxtexture_borrow
$pdata$rxrender_target_copy DD imagerel $LN5
	DD	imagerel $LN5+334
	DD	imagerel $unwind$rxrender_target_copy
$pdata$rxrender_target_apply DD imagerel $LN18
	DD	imagerel $LN18+751
	DD	imagerel $unwind$rxrender_target_apply
$pdata$rxsampler_apply DD imagerel rxsampler_apply
	DD	imagerel rxsampler_apply+181
	DD	imagerel $unwind$rxsampler_apply
$pdata$rxsampler_bind DD imagerel rxsampler_bind
	DD	imagerel rxsampler_bind+26
	DD	imagerel $unwind$rxsampler_bind
$pdata$rxshader_apply DD imagerel $LN11
	DD	imagerel $LN11+555
	DD	imagerel $unwind$rxshader_apply
$pdata$rxcompile_shader_bytecode DD imagerel $LN6
	DD	imagerel $LN6+545
	DD	imagerel $unwind$rxcompile_shader_bytecode
$pdata$rxload_vertex_shader DD imagerel $LN25
	DD	imagerel $LN25+882
	DD	imagerel $unwind$rxload_vertex_shader
$pdata$rxload_pixel_shader DD imagerel $LN25
	DD	imagerel $LN25+882
	DD	imagerel $unwind$rxload_pixel_shader
$pdata$rxbuffer_borrow DD imagerel $LN12
	DD	imagerel $LN12+418
	DD	imagerel $unwind$rxbuffer_borrow
$pdata$rxuniform_buffer_delete DD imagerel $LN5
	DD	imagerel $LN5+85
	DD	imagerel $unwind$rxuniform_buffer_delete
$pdata$rxuniform_buffer_update DD imagerel $LN3
	DD	imagerel $LN3+129
	DD	imagerel $unwind$rxuniform_buffer_update
$pdata$rxuniform_buffer_bind_ex DD imagerel $LN13
	DD	imagerel $LN13+360
	DD	imagerel $unwind$rxuniform_buffer_bind_ex
$pdata$rxenable_ztesting DD imagerel $LN5
	DD	imagerel $LN5+73
	DD	imagerel $unwind$rxenable_ztesting
$pdata$rxarticle_create DD imagerel $LN7
	DD	imagerel $LN7+299
	DD	imagerel $unwind$rxarticle_create
$pdata$rxinvalidate_contents DD imagerel $LN14
	DD	imagerel $LN14+495
	DD	imagerel $unwind$rxinvalidate_contents
$pdata$rxunknown_typeof_compute_shader DD imagerel $LN6
	DD	imagerel $LN6+100
	DD	imagerel $unwind$rxunknown_typeof_compute_shader
$pdata$rxunknown_typeof_vertex_shader DD imagerel $LN6
	DD	imagerel $LN6+100
	DD	imagerel $unwind$rxunknown_typeof_vertex_shader
$pdata$rxunknown_typeof_pixel_shader DD imagerel $LN6
	DD	imagerel $LN6+100
	DD	imagerel $unwind$rxunknown_typeof_pixel_shader
$pdata$rxshader_typeof_compute DD imagerel $LN3
	DD	imagerel $LN3+24
	DD	imagerel $unwind$rxshader_typeof_compute
$pdata$rxshader_typeof_vertex DD imagerel $LN3
	DD	imagerel $LN3+24
	DD	imagerel $unwind$rxshader_typeof_vertex
$pdata$rxshader_typeof_pixel DD imagerel $LN3
	DD	imagerel $LN3+24
	DD	imagerel $unwind$rxshader_typeof_pixel
$pdata$rxdelete_blobbler DD imagerel $LN4
	DD	imagerel $LN4+47
	DD	imagerel $unwind$rxdelete_blobbler
$pdata$rxcreate_shader DD imagerel $LN31
	DD	imagerel $LN31+1443
	DD	imagerel $unwind$rxcreate_shader
$pdata$rxdelete_unknown DD imagerel $LN4
	DD	imagerel $LN4+38
	DD	imagerel $unwind$rxdelete_unknown
$pdata$rxdelete_vertex_buffer DD imagerel $LN3
	DD	imagerel $LN3+24
	DD	imagerel $unwind$rxdelete_vertex_buffer
$pdata$rxdelete_index_buffer DD imagerel $LN3
	DD	imagerel $LN3+24
	DD	imagerel $unwind$rxdelete_index_buffer
$pdata$rxreturn DD imagerel $LN3
	DD	imagerel $LN3+45
	DD	imagerel $unwind$rxreturn
$pdata$rxuniform_buffer_borrow DD imagerel $LN3
	DD	imagerel $LN3+58
	DD	imagerel $unwind$rxuniform_buffer_borrow
$pdata$rxuniform_buffer_create DD imagerel $LN3
	DD	imagerel $LN3+157
	DD	imagerel $unwind$rxuniform_buffer_create
$pdata$rxcreate_index_buffer DD imagerel $LN3
	DD	imagerel $LN3+150
	DD	imagerel $unwind$rxcreate_index_buffer
$pdata$rxcreate_vertex_buffer DD imagerel $LN3
	DD	imagerel $LN3+150
	DD	imagerel $unwind$rxcreate_vertex_buffer
$pdata$rxcreate_struct_buffer DD imagerel $LN3
	DD	imagerel $LN3+229
	DD	imagerel $unwind$rxcreate_struct_buffer
$pdata$rxborrow_vertex_buffer DD imagerel $LN3
	DD	imagerel $LN3+58
	DD	imagerel $unwind$rxborrow_vertex_buffer
$pdata$rxborrow_index_buffer DD imagerel $LN3
	DD	imagerel $LN3+58
	DD	imagerel $unwind$rxborrow_index_buffer
$pdata$rxborrow_struct_buffer DD imagerel $LN3
	DD	imagerel $LN3+79
	DD	imagerel $unwind$rxborrow_struct_buffer
$pdata$rxdriver_stage_viewport DD imagerel $LN3
	DD	imagerel $LN3+147
	DD	imagerel $unwind$rxdriver_stage_viewport
$pdata$rxcomtag DD imagerel $LN5
	DD	imagerel $LN5+70
	DD	imagerel $unwind$rxcomtag
$pdata$rxcomadd DD imagerel $LN4
	DD	imagerel $LN4+212
	DD	imagerel $unwind$rxcomadd
$pdata$rx3d DD	imagerel $LN3
	DD	imagerel $LN3+41
	DD	imagerel $unwind$rx3d
$pdata$rx2d DD	imagerel $LN3
	DD	imagerel $LN3+38
	DD	imagerel $unwind$rx2d
$pdata$rxclip DD imagerel $LN11
	DD	imagerel $LN11+446
	DD	imagerel $unwind$rxclip
$pdata$rxsampler_bind_ex DD imagerel $LN3
	DD	imagerel $LN3+59
	DD	imagerel $unwind$rxsampler_bind_ex
$pdata$rxtexture_bind_ex DD imagerel $LN3
	DD	imagerel $LN3+70
	DD	imagerel $unwind$rxtexture_bind_ex
$pdata$rxcomexc DD imagerel $LN38
	DD	imagerel $LN38+2236
	DD	imagerel $unwind$rxcomexc
$pdata$rxdraw_end DD imagerel $LN3
	DD	imagerel $LN3+19
	DD	imagerel $unwind$rxdraw_end
$pdata$rxqueue_custom_command DD imagerel $LN3
	DD	imagerel $LN3+43
	DD	imagerel $unwind$rxqueue_custom_command
$pdata$rxdraw_matrix DD imagerel $LN3
	DD	imagerel $LN3+54
	DD	imagerel $unwind$rxdraw_matrix
$pdata$rxqueue_shader_command DD imagerel $LN3
	DD	imagerel $LN3+43
	DD	imagerel $unwind$rxqueue_shader_command
$pdata$rxqueue_uniform_command DD imagerel $LN3
	DD	imagerel $LN3+29
	DD	imagerel $unwind$rxqueue_uniform_command
$pdata$rxvertex_mode_end DD imagerel $LN7
	DD	imagerel $LN7+136
	DD	imagerel $unwind$rxvertex_mode_end
$pdata$rxvertex_mode DD imagerel $LN7
	DD	imagerel $LN7+300
	DD	imagerel $unwind$rxvertex_mode
$pdata$rxsubmit_index DD imagerel $LN11
	DD	imagerel $LN11+305
	DD	imagerel $unwind$rxsubmit_index
$pdata$rxvertex_color DD imagerel $LN3
	DD	imagerel $LN3+32
	DD	imagerel $unwind$rxvertex_color
$pdata$rxsubmit_vertex_array DD imagerel $LN3
	DD	imagerel $LN3+84
	DD	imagerel $unwind$rxsubmit_vertex_array
$pdata$rxsubmit_vertex DD imagerel $LN3
	DD	imagerel $LN3+58
	DD	imagerel $unwind$rxsubmit_vertex
$pdata$rxsubmit_vertex_ex DD imagerel $LN11
	DD	imagerel $LN11+422
	DD	imagerel $unwind$rxsubmit_vertex_ex
$pdata$rx_vertex_xyz DD imagerel $LN3
	DD	imagerel $LN3+128
	DD	imagerel $unwind$rx_vertex_xyz
$pdata$rx_vertex_xyz_color DD imagerel $LN3
	DD	imagerel $LN3+131
	DD	imagerel $unwind$rx_vertex_xyz_color
$pdata$rxsubmit_vertex_xy DD imagerel $LN3
	DD	imagerel $LN3+121
	DD	imagerel $unwind$rxsubmit_vertex_xy
$pdata$rxsubmit_vertex_tex DD imagerel $LN3
	DD	imagerel $LN3+135
	DD	imagerel $unwind$rxsubmit_vertex_tex
$pdata$rxdraw_skinned_preset_unnormalized DD imagerel $LN3
	DD	imagerel $LN3+464
	DD	imagerel $unwind$rxdraw_skinned_preset_unnormalized
$pdata$rxdraw_skinned_unnormalized DD imagerel $LN3
	DD	imagerel $LN3+252
	DD	imagerel $unwind$rxdraw_skinned_unnormalized
$pdata$rxdraw_skinned_ex DD imagerel $LN3
	DD	imagerel $LN3+292
	DD	imagerel $unwind$rxdraw_skinned_ex
$pdata$rxdraw_skinned DD imagerel $LN3
	DD	imagerel $LN3+302
	DD	imagerel $unwind$rxdraw_skinned
$pdata$rxtexture_scaled DD imagerel $LN3
	DD	imagerel $LN3+328
	DD	imagerel $unwind$rxtexture_scaled
$pdata$rxdraw_rect DD imagerel $LN3
	DD	imagerel $LN3+211
	DD	imagerel $unwind$rxdraw_rect
$pdata$rxdraw_circle DD imagerel $LN6
	DD	imagerel $LN6+540
	DD	imagerel $unwind$rxdraw_circle
$pdata$rxdraw_line DD imagerel $LN3
	DD	imagerel $LN3+586
	DD	imagerel $unwind$rxdraw_line
$pdata$rxdraw_outline DD imagerel $LN3
	DD	imagerel $LN3+679
	DD	imagerel $unwind$rxdraw_outline
$pdata$rxdraw_text_length DD imagerel $LN3
	DD	imagerel $LN3+90
	DD	imagerel $unwind$rxdraw_text_length
$pdata$rxdraw_text_ex DD imagerel $LN11
	DD	imagerel $LN11+938
	DD	imagerel $unwind$rxdraw_text_ex
$pdata$rxdraw_text DD imagerel $LN4
	DD	imagerel $LN4+216
	DD	imagerel $unwind$rxdraw_text
$pdata$rxtexture_delete DD imagerel $LN4
	DD	imagerel $LN4+104
	DD	imagerel $unwind$rxtexture_delete
$pdata$rxcreate_render_target DD imagerel $LN3
	DD	imagerel $LN3+177
	DD	imagerel $unwind$rxcreate_render_target
$pdata$rxtime DD imagerel $LN3
	DD	imagerel $LN3+121
	DD	imagerel $unwind$rxtime
$pdata$rxeffect_candle DD imagerel $LN3
	DD	imagerel $LN3+65
	DD	imagerel $unwind$rxeffect_candle
$pdata$rxeffect_shadow DD imagerel $LN3
	DD	imagerel $LN3+65
	DD	imagerel $unwind$rxeffect_shadow
$pdata$rxrestore_render_stack DD imagerel $LN3
	DD	imagerel $LN3+897
	DD	imagerel $unwind$rxrestore_render_stack
$pdata$rxdefault_render_pass_end DD imagerel $LN3
	DD	imagerel $LN3+210
	DD	imagerel $unwind$rxdefault_render_pass_end
$pdata$rxwindow_message_handler_win32 DD imagerel $LN64
	DD	imagerel $LN64+1635
	DD	imagerel $unwind$rxwindow_message_handler_win32
$pdata$rxwindow_message_callback_win32 DD imagerel $LN4
	DD	imagerel $LN4+97
	DD	imagerel $unwind$rxwindow_message_callback_win32
$pdata$rxwindow_poll DD imagerel $LN5
	DD	imagerel $LN5+234
	DD	imagerel $unwind$rxwindow_poll
$pdata$rxwindow_create DD imagerel $LN8
	DD	imagerel $LN8+446
	DD	imagerel $unwind$rxwindow_create
$pdata$rxwindow_enable DD imagerel $LN4
	DD	imagerel $LN4+59
	DD	imagerel $unwind$rxwindow_enable
$pdata$rxwindow_resize DD imagerel $LN3
	DD	imagerel $LN3+146
	DD	imagerel $unwind$rxwindow_resize
$pdata$rxwindow_xy DD imagerel $LN3
	DD	imagerel $LN3+66
	DD	imagerel $unwind$rxwindow_xy
$pdata$rxtick DD imagerel $LN15
	DD	imagerel $LN15+1543
	DD	imagerel $unwind$rxtick
$pdata$rxcreate_simple_stencil_state_d3d DD imagerel $LN3
	DD	imagerel $LN3+204
	DD	imagerel $unwind$rxcreate_simple_stencil_state_d3d
$pdata$rxinit_default_font DD imagerel $LN6
	DD	imagerel $LN6+12628
	DD	imagerel $unwind$rxinit_default_font
$pdata$rxinit DD imagerel $LN17
	DD	imagerel $LN17+3002
	DD	imagerel $unwind$rxinit
$pdata$load_bitmap8 DD imagerel $LN9
	DD	imagerel $LN9+242
	DD	imagerel $unwind$load_bitmap8
$pdata$is_click_leave_rect DD imagerel $LN5
	DD	imagerel $LN5+85
	DD	imagerel $unwind$is_click_leave_rect
$pdata$is_click_enter_rect DD imagerel $LN5
	DD	imagerel $LN5+85
	DD	imagerel $unwind$is_click_enter_rect
$pdata$mouse_is_key DD imagerel $LN5
	DD	imagerel $LN5+88
	DD	imagerel $unwind$mouse_is_key
$pdata$rect_by_xyxy DD imagerel $LN11
	DD	imagerel $LN11+381
	DD	imagerel $unwind$rect_by_xyxy
$pdata$rect_by_size DD imagerel $LN3
	DD	imagerel $LN3+105
	DD	imagerel $unwind$rect_by_size
$pdata$rect_in_xy DD imagerel $LN6
	DD	imagerel $LN6+97
	DD	imagerel $unwind$rect_in_xy
$pdata$rect_cut DD imagerel $LN9
	DD	imagerel $LN9+698
	DD	imagerel $unwind$rect_cut
$pdata$rect_center DD imagerel $LN3
	DD	imagerel $LN3+250
	DD	imagerel $unwind$rect_center
$pdata$rect_padd DD imagerel $LN3
	DD	imagerel $LN3+163
	DD	imagerel $unwind$rect_padd
$pdata$text_rect DD imagerel $LN3
	DD	imagerel $LN3+174
	DD	imagerel $unwind$text_rect
$pdata$set_window_rect DD imagerel $LN3
	DD	imagerel $LN3+73
	DD	imagerel $unwind$set_window_rect
$pdata$get_monitor_rect DD imagerel $LN3
	DD	imagerel $LN3+144
	DD	imagerel $unwind$get_monitor_rect
$pdata$get_window_rect DD imagerel $LN3
	DD	imagerel $LN3+145
	DD	imagerel $unwind$get_window_rect
$pdata$get_window_client_rect DD imagerel $LN3
	DD	imagerel $LN3+127
	DD	imagerel $unwind$get_window_client_rect
$pdata$draw_rect DD imagerel $LN3
	DD	imagerel $LN3+139
	DD	imagerel $unwind$draw_rect
$pdata$draw_text DD imagerel $LN3
	DD	imagerel $LN3+108
	DD	imagerel $unwind$draw_text
$pdata$set_clip_rect DD imagerel $LN3
	DD	imagerel $LN3+52
	DD	imagerel $unwind$set_clip_rect
$pdata$button_widget DD imagerel $LN5
	DD	imagerel $LN5+786
	DD	imagerel $unwind$button_widget
$pdata$checkbox_widget DD imagerel $LN12
	DD	imagerel $LN12+1482
	DD	imagerel $unwind$checkbox_widget
$pdata$dropdown_widget DD imagerel $LN12
	DD	imagerel $LN12+1359
	DD	imagerel $unwind$dropdown_widget
$pdata$cursor_in_rect DD imagerel $LN3
	DD	imagerel $LN3+61
	DD	imagerel $unwind$cursor_in_rect
$pdata$is_click_enter DD imagerel $LN5
	DD	imagerel $LN5+144
	DD	imagerel $unwind$is_click_enter
$pdata$list_item_widget DD imagerel $LN5
	DD	imagerel $LN5+609
	DD	imagerel $unwind$list_item_widget
$pdata$slider_widget DD imagerel $LN6
	DD	imagerel $LN6+837
	DD	imagerel $unwind$slider_widget
$pdata$is_click_leave DD imagerel $LN5
	DD	imagerel $LN5+144
	DD	imagerel $unwind$is_click_leave
$pdata$mouse_poll DD imagerel $LN14
	DD	imagerel $LN14+415
	DD	imagerel $unwind$mouse_poll
$pdata$erecache DD imagerel $LN15
	DD	imagerel $LN15+392
	DD	imagerel $unwind$erecache
$pdata$egetlen DD imagerel $LN3
	DD	imagerel $LN3+41
	DD	imagerel $unwind$egetlen
$pdata$egetoff DD imagerel $LN3
	DD	imagerel $LN3+41
	DD	imagerel $unwind$egetoff
$pdata$esetcur DD imagerel $LN3
	DD	imagerel $LN3+36
	DD	imagerel $unwind$esetcur
$pdata$egetcur DD imagerel $LN3
	DD	imagerel $LN3+41
	DD	imagerel $unwind$egetcur
$pdata$egetcurx DD imagerel $LN3
	DD	imagerel $LN3+32
	DD	imagerel $unwind$egetcurx
$pdata$egetcury DD imagerel $LN3
	DD	imagerel $LN3+32
	DD	imagerel $unwind$egetcury
$pdata$ecurloc DD imagerel $LN3
	DD	imagerel $LN3+58
	DD	imagerel $unwind$ecurloc
$pdata$currec DD imagerel $LN3
	DD	imagerel $LN3+195
	DD	imagerel $unwind$currec
$pdata$emovcurx DD imagerel $LN11
	DD	imagerel $LN11+347
	DD	imagerel $unwind$emovcurx
$pdata$emovcury DD imagerel $LN6
	DD	imagerel $LN6+311
	DD	imagerel $unwind$emovcury
$pdata$eputchar DD imagerel $LN5
	DD	imagerel $LN5+233
	DD	imagerel $unwind$eputchar
$pdata$edelchar DD imagerel $LN5
	DD	imagerel $LN5+192
	DD	imagerel $unwind$edelchar
$pdata$fload DD	imagerel $LN7
	DD	imagerel $LN7+291
	DD	imagerel $unwind$fload
$pdata$fsave DD	imagerel $LN4
	DD	imagerel $LN4+112
	DD	imagerel $unwind$fsave
$pdata$ewdg DD	imagerel $LN39
	DD	imagerel $LN39+1717
	DD	imagerel $unwind$ewdg
$pdata$copy_string_ex DD imagerel $LN5
	DD	imagerel $LN5+209
	DD	imagerel $unwind$copy_string_ex
$pdata$copy_string DD imagerel $LN4
	DD	imagerel $LN4+48
	DD	imagerel $unwind$copy_string
$pdata$fdlg DD	imagerel $LN3
	DD	imagerel $LN3+218
	DD	imagerel $unwind$fdlg
$pdata$main DD	imagerel $LN9
	DD	imagerel $LN9+551
	DD	imagerel $unwind$main
pdata	ENDS
;	COMDAT __xmm@fa7efa7efa7efa7efa7efa7efa7efa7e
CONST	SEGMENT
__xmm@fa7efa7efa7efa7efa7efa7efa7efa7e DB '~', 0faH, '~', 0faH, '~', 0faH
	DB	'~', 0faH, '~', 0faH, '~', 0faH, '~', 0faH, '~', 0faH
CONST	ENDS
;	COMDAT __xmm@f9c31a9df9c31a9df9c31a9df9c31a9d
CONST	SEGMENT
__xmm@f9c31a9df9c31a9df9c31a9df9c31a9d DB 09dH, 01aH, 0c3H, 0f9H, 09dH, 01aH
	DB	0c3H, 0f9H, 09dH, 01aH, 0c3H, 0f9H, 09dH, 01aH, 0c3H, 0f9H
CONST	ENDS
;	COMDAT __xmm@f493f493f493f493f493f493f493f493
CONST	SEGMENT
__xmm@f493f493f493f493f493f493f493f493 DB 093H, 0f4H, 093H, 0f4H, 093H, 0f4H
	DB	093H, 0f4H, 093H, 0f4H, 093H, 0f4H, 093H, 0f4H, 093H, 0f4H
CONST	ENDS
;	COMDAT __xmm@eb1a08a9eb1a08a9eb1a08a9eb1a08a9
CONST	SEGMENT
__xmm@eb1a08a9eb1a08a9eb1a08a9eb1a08a9 DB 0a9H, 08H, 01aH, 0ebH, 0a9H, 08H
	DB	01aH, 0ebH, 0a9H, 08H, 01aH, 0ebH, 0a9H, 08H, 01aH, 0ebH
CONST	ENDS
;	COMDAT __xmm@e9cf12d0e9cf12d0e9cf12d0e9cf12d0
CONST	SEGMENT
__xmm@e9cf12d0e9cf12d0e9cf12d0e9cf12d0 DB 0d0H, 012H, 0cfH, 0e9H, 0d0H, 012H
	DB	0cfH, 0e9H, 0d0H, 012H, 0cfH, 0e9H, 0d0H, 012H, 0cfH, 0e9H
CONST	ENDS
;	COMDAT __xmm@e09ee565e09ee565e09ee565e09ee565
CONST	SEGMENT
__xmm@e09ee565e09ee565e09ee565e09ee565 DB 'e', 0e5H, 09eH, 0e0H, 'e', 0e5H
	DB	09eH, 0e0H, 'e', 0e5H, 09eH, 0e0H, 'e', 0e5H, 09eH, 0e0H
CONST	ENDS
;	COMDAT __xmm@80808080808080808080808080808080
CONST	SEGMENT
__xmm@80808080808080808080808080808080 DB 080H, 080H, 080H, 080H, 080H, 080H
	DB	080H, 080H, 080H, 080H, 080H, 080H, 080H, 080H, 080H, 080H
CONST	ENDS
;	COMDAT __xmm@80000000800000008000000080000000
CONST	SEGMENT
__xmm@80000000800000008000000080000000 DB 00H, 00H, 00H, 080H, 00H, 00H, 00H
	DB	080H, 00H, 00H, 00H, 080H, 00H, 00H, 00H, 080H
CONST	ENDS
;	COMDAT __xmm@80000000000000008000000000000000
CONST	SEGMENT
__xmm@80000000000000008000000000000000 DB 00H, 00H, 00H, 00H, 00H, 00H, 00H
	DB	080H, 00H, 00H, 00H, 00H, 00H, 00H, 00H, 080H
CONST	ENDS
;	COMDAT __xmm@1c5a1c5a1c5a1c5a1c5a1c5a1c5a1c5a
CONST	SEGMENT
__xmm@1c5a1c5a1c5a1c5a1c5a1c5a1c5a1c5a DB 'Z', 01cH, 'Z', 01cH, 'Z', 01cH
	DB	'Z', 01cH, 'Z', 01cH, 'Z', 01cH, 'Z', 01cH, 'Z', 01cH
CONST	ENDS
;	COMDAT __xmm@166f166f166f166f166f166f166f166f
CONST	SEGMENT
__xmm@166f166f166f166f166f166f166f166f DB 'o', 016H, 'o', 016H, 'o', 016H
	DB	'o', 016H, 'o', 016H, 'o', 016H, 'o', 016H, 'o', 016H
CONST	ENDS
;	COMDAT __xmm@12d0046b12d0046b12d0046b12d0046b
CONST	SEGMENT
__xmm@12d0046b12d0046b12d0046b12d0046b DB 'k', 04H, 0d0H, 012H, 'k', 04H, 0d0H
	DB	012H, 'k', 04H, 0d0H, 012H, 'k', 04H, 0d0H, 012H
CONST	ENDS
;	COMDAT __xmm@11c8f9c311c8f9c311c8f9c311c8f9c3
CONST	SEGMENT
__xmm@11c8f9c311c8f9c311c8f9c311c8f9c3 DB 0c3H, 0f9H, 0c8H, 011H, 0c3H, 0f9H
	DB	0c8H, 011H, 0c3H, 0f9H, 0c8H, 011H, 0c3H, 0f9H, 0c8H, 011H
CONST	ENDS
;	COMDAT __xmm@11c8e09e11c8e09e11c8e09e11c8e09e
CONST	SEGMENT
__xmm@11c8e09e11c8e09e11c8e09e11c8e09e DB 09eH, 0e0H, 0c8H, 011H, 09eH, 0e0H
	DB	0c8H, 011H, 09eH, 0e0H, 0c8H, 011H, 09eH, 0e0H, 0c8H, 011H
CONST	ENDS
;	COMDAT __xmm@08a914e808a914e808a914e808a914e8
CONST	SEGMENT
__xmm@08a914e808a914e808a914e808a914e8 DB 0e8H, 014H, 0a9H, 08H, 0e8H, 014H
	DB	0a9H, 08H, 0e8H, 014H, 0a9H, 08H, 0e8H, 014H, 0a9H, 08H
CONST	ENDS
;	COMDAT __xmm@01010000010100000101000001010000
CONST	SEGMENT
__xmm@01010000010100000101000001010000 DB 00H, 00H, 01H, 01H, 00H, 00H, 01H
	DB	01H, 00H, 00H, 01H, 01H, 00H, 00H, 01H, 01H
CONST	ENDS
;	COMDAT __xmm@00ff00ff00ff00ff00ff00ff00ff00ff
CONST	SEGMENT
__xmm@00ff00ff00ff00ff00ff00ff00ff00ff DB 0ffH, 00H, 0ffH, 00H, 0ffH, 00H
	DB	0ffH, 00H, 0ffH, 00H, 0ffH, 00H, 0ffH, 00H, 0ffH, 00H
CONST	ENDS
;	COMDAT __xmm@00080008000800080008000800080008
CONST	SEGMENT
__xmm@00080008000800080008000800080008 DB 08H, 00H, 08H, 00H, 08H, 00H, 08H
	DB	00H, 08H, 00H, 08H, 00H, 08H, 00H, 08H, 00H
CONST	ENDS
;	COMDAT __xmm@00000200000002000000020000000200
CONST	SEGMENT
__xmm@00000200000002000000020000000200 DB 00H, 02H, 00H, 00H, 00H, 02H, 00H
	DB	00H, 00H, 02H, 00H, 00H, 00H, 02H, 00H, 00H
CONST	ENDS
;	COMDAT __real@bf800000
CONST	SEGMENT
__real@bf800000 DD 0bf800000r			; -1
CONST	ENDS
;	COMDAT __real@be2cca2e
CONST	SEGMENT
__real@be2cca2e DD 0be2cca2er			; -0.16874
CONST	ENDS
;	COMDAT __real@477fff00
CONST	SEGMENT
__real@477fff00 DD 0477fff00r			; 65535
CONST	ENDS
;	COMDAT __real@43800000
CONST	SEGMENT
__real@43800000 DD 043800000r			; 256
CONST	ENDS
;	COMDAT __real@437f0000
CONST	SEGMENT
__real@437f0000 DD 0437f0000r			; 255
CONST	ENDS
;	COMDAT __real@43000000
CONST	SEGMENT
__real@43000000 DD 043000000r			; 128
CONST	ENDS
;	COMDAT __real@41800000
CONST	SEGMENT
__real@41800000 DD 041800000r			; 16
CONST	ENDS
;	COMDAT __real@41200000
CONST	SEGMENT
__real@41200000 DD 041200000r			; 10
CONST	ENDS
;	COMDAT __real@40c00000
CONST	SEGMENT
__real@40c00000 DD 040c00000r			; 6
CONST	ENDS
;	COMDAT __real@4090000000000000
CONST	SEGMENT
__real@4090000000000000 DQ 04090000000000000r	; 1024
CONST	ENDS
;	COMDAT __real@408f400000000000
CONST	SEGMENT
__real@408f400000000000 DQ 0408f400000000000r	; 1000
CONST	ENDS
;	COMDAT __real@4066800000000000
CONST	SEGMENT
__real@4066800000000000 DQ 04066800000000000r	; 180
CONST	ENDS
;	COMDAT __real@4056800000000000
CONST	SEGMENT
__real@4056800000000000 DQ 04056800000000000r	; 90
CONST	ENDS
;	COMDAT __real@40400000
CONST	SEGMENT
__real@40400000 DD 040400000r			; 3
CONST	ENDS
;	COMDAT __real@400921fb60000000
CONST	SEGMENT
__real@400921fb60000000 DQ 0400921fb60000000r	; 3.14159
CONST	ENDS
;	COMDAT __real@4000000000000000
CONST	SEGMENT
__real@4000000000000000 DQ 04000000000000000r	; 2
CONST	ENDS
;	COMDAT __real@3ff0000000000000
CONST	SEGMENT
__real@3ff0000000000000 DQ 03ff0000000000000r	; 1
CONST	ENDS
;	COMDAT __real@3fe0000000000000
CONST	SEGMENT
__real@3fe0000000000000 DQ 03fe0000000000000r	; 0.5
CONST	ENDS
;	COMDAT __real@3fd0000000000000
CONST	SEGMENT
__real@3fd0000000000000 DQ 03fd0000000000000r	; 0.25
CONST	ENDS
;	COMDAT __real@3fa999999999999a
CONST	SEGMENT
__real@3fa999999999999a DQ 03fa999999999999ar	; 0.05
CONST	ENDS
;	COMDAT __real@3fa73d75
CONST	SEGMENT
__real@3fa73d75 DD 03fa73d75r			; 1.30656
CONST	ENDS
;	COMDAT __real@3f847ae147ae147b
CONST	SEGMENT
__real@3f847ae147ae147b DQ 03f847ae147ae147br	; 0.01
CONST	ENDS
;	COMDAT __real@3f800000
CONST	SEGMENT
__real@3f800000 DD 03f800000r			; 1
CONST	ENDS
;	COMDAT __real@3f40c0c1
CONST	SEGMENT
__real@3f40c0c1 DD 03f40c0c1r			; 0.752941
CONST	ENDS
;	COMDAT __real@3f3504f3
CONST	SEGMENT
__real@3f3504f3 DD 03f3504f3r			; 0.707107
CONST	ENDS
;	COMDAT __real@3f1645a2
CONST	SEGMENT
__real@3f1645a2 DD 03f1645a2r			; 0.587
CONST	ENDS
;	COMDAT __real@3f0a8bd4
CONST	SEGMENT
__real@3f0a8bd4 DD 03f0a8bd4r			; 0.541196
CONST	ENDS
;	COMDAT __real@3f000000
CONST	SEGMENT
__real@3f000000 DD 03f000000r			; 0.5
CONST	ENDS
;	COMDAT __real@3ed65e89
CONST	SEGMENT
__real@3ed65e89 DD 03ed65e89r			; 0.41869
CONST	ENDS
;	COMDAT __real@3ecccccd
CONST	SEGMENT
__real@3ecccccd DD 03ecccccdr			; 0.4
CONST	ENDS
;	COMDAT __real@3ec3ef15
CONST	SEGMENT
__real@3ec3ef15 DD 03ec3ef15r			; 0.382683
CONST	ENDS
;	COMDAT __real@3ea99ae9
CONST	SEGMENT
__real@3ea99ae9 DD 03ea99ae9r			; 0.33126
CONST	ENDS
;	COMDAT __real@3e99999a
CONST	SEGMENT
__real@3e99999a DD 03e99999ar			; 0.3
CONST	ENDS
;	COMDAT __real@3e991687
CONST	SEGMENT
__real@3e991687 DD 03e991687r			; 0.299
CONST	ENDS
;	COMDAT __real@3e800000
CONST	SEGMENT
__real@3e800000 DD 03e800000r			; 0.25
CONST	ENDS
;	COMDAT __real@3e4ccccd
CONST	SEGMENT
__real@3e4ccccd DD 03e4ccccdr			; 0.2
CONST	ENDS
;	COMDAT __real@3e48c8c9
CONST	SEGMENT
__real@3e48c8c9 DD 03e48c8c9r			; 0.196078
CONST	ENDS
;	COMDAT __real@3de978d5
CONST	SEGMENT
__real@3de978d5 DD 03de978d5r			; 0.114
CONST	ENDS
;	COMDAT __real@3da685db
CONST	SEGMENT
__real@3da685db DD 03da685dbr			; 0.08131
CONST	ENDS
;	COMDAT __real@3d909091
CONST	SEGMENT
__real@3d909091 DD 03d909091r			; 0.0705882
CONST	ENDS
;	COMDAT __real@3c8efa35
CONST	SEGMENT
__real@3c8efa35 DD 03c8efa35r			; 0.0174533
CONST	ENDS
;	COMDAT __real@0a4fb11f
CONST	SEGMENT
__real@0a4fb11f DD 00a4fb11fr			; 1e-32
CONST	ENDS
;	COMDAT __real@00000000
CONST	SEGMENT
__real@00000000 DD 000000000r			; 0
CONST	ENDS
_DATA	SEGMENT
stbsp__period DB 02eH
stbsp__comma DB	02cH
	ORG $+5
stbsp__digitpair DW 00H
	DB	'00010203040506070809101112131415161718192021222324252627'
	DB	'2829303132333435363738394041424344454647484950515253545556575'
	DB	'8596061626364656667686970717273747576777879808182838485868788'
	DB	'8990919293949596979899', 00H
	ORG $+1
$SG106301 DB	'NaN', 00H
?hex@?1??stbsp_vsprintfcb@@9@9 DB '0123456789abcdefxp', 00H ; `stbsp_vsprintfcb'::`2'::hex
	ORG $+1
$SG106302 DB	'Inf', 00H
?hexu@?1??stbsp_vsprintfcb@@9@9 DB '0123456789ABCDEFXP', 00H ; `stbsp_vsprintfcb'::`2'::hexu
	ORG $+1
$SG105722 DB	'null', 00H
	ORG $+3
$SG105796 DB	'_KMGT', 00H
	ORG $+2
$SG105797 DB	'_kMGT', 00H
	ORG $+2
$SG106582 DB	'err', 00H
$SG106581 DB	'assertion triggered', 00H
$SG106658 DB	'err', 00H
$SG106583 DB	'ccstatic_alloc', 00H
	ORG $+1
$SG106584 DB	'W:\cpp\void\e\rx\cc\cc.c', 00H
	ORG $+3
$SG106716 DB	'err', 00H
$SG106637 DB	'%s: %s[%i] %s() %s', 0aH, 00H
$SG106721 DB	'err', 00H
$SG106657 DB	'assertion triggered', 00H
$SG106727 DB	'err', 00H
$SG106659 DB	'ccdlbdel_', 00H
	ORG $+2
$SG106797 DB	'err', 00H
$SG106660 DB	'W:\cpp\void\e\rx\cc\cc.c', 00H
	ORG $+3
$SG106802 DB	'err', 00H
$SG106662 DB	'ccdlbdel_', 00H
	ORG $+2
$SG106813 DB	'err', 00H
$SG106663 DB	'W:\cpp\void\e\rx\cc\cc.c', 00H
	ORG $+3
$SG106826 DB	'err', 00H
$SG106664 DB	'ccdlbdel_', 00H
	ORG $+2
$SG106831 DB	'err', 00H
$SG106665 DB	'W:\cpp\void\e\rx\cc\cc.c', 00H
	ORG $+3
$SG106873 DB	'err', 00H
$SG106715 DB	'assertion triggered', 00H
$SG106894 DB	'err', 00H
$SG106717 DB	'ccdlbadd_', 00H
	ORG $+2
$SG106900 DB	'war', 00H
$SG106718 DB	'W:\cpp\void\e\rx\cc\cc.c', 00H
	ORG $+3
$SG106918 DB	'err', 00H
$SG106720 DB	'assertion triggered', 00H
$SG107083 DB	'%c', 00H
	ORG $+1
$SG106722 DB	'ccdlbadd_', 00H
	ORG $+2
$SG107097 DB	'err', 00H
$SG106723 DB	'W:\cpp\void\e\rx\cc\cc.c', 00H
	ORG $+3
$SG107095 DB	'error', 00H
	ORG $+2
$SG107106 DB	'%%', 00H
	ORG $+1
$SG106726 DB	'assertion triggered', 00H
$SG107109 DB	'%i', 00H
	ORG $+1
$SG106728 DB	'ccdlbadd_', 00H
	ORG $+2
$SG107112 DB	'%f', 00H
	ORG $+1
$SG106729 DB	'W:\cpp\void\e\rx\cc\cc.c', 00H
	ORG $+3
$SG107115 DB	'%s', 00H
	ORG $+1
$SG106731 DB	'ccdlbadd_', 00H
	ORG $+2
$SG107118 DB	'%c', 00H
	ORG $+1
$SG106732 DB	'W:\cpp\void\e\rx\cc\cc.c', 00H
	ORG $+3
$SG107121 DB	'%p', 00H
	ORG $+1
$SG106741 DB	'ccallocentry', 00H
	ORG $+3
$SG106742 DB	'W:\cpp\void\e\rx\cc\cc.c', 00H
	ORG $+3
$SG107129 DB	'error', 00H
	ORG $+2
$SG107131 DB	'err', 00H
$SG106796 DB	'assertion triggered', 00H
$SG107213 DB	'err', 00H
$SG106798 DB	'cctblhsh_', 00H
	ORG $+2
$SG107217 DB	'err', 00H
$SG106799 DB	'W:\cpp\void\e\rx\cc\cc.c', 00H
	ORG $+3
$SG107222 DB	'err', 00H
$SG106801 DB	'assertion triggered', 00H
$SG107226 DB	'err', 00H
$SG106803 DB	'cctblhsh_', 00H
	ORG $+2
$SG107231 DB	'err', 00H
$SG106804 DB	'W:\cpp\void\e\rx\cc\cc.c', 00H
	ORG $+3
$SG107236 DB	'err', 00H
$SG106812 DB	'assertion triggered', 00H
$SG107241 DB	'err', 00H
$SG106814 DB	'cctblhsh_', 00H
	ORG $+2
$SG107246 DB	'err', 00H
$SG106815 DB	'W:\cpp\void\e\rx\cc\cc.c', 00H
	ORG $+3
$SG107251 DB	'err', 00H
$SG106825 DB	'assertion triggered', 00H
$SG107256 DB	'err', 00H
$SG106827 DB	'cctblhsh_', 00H
	ORG $+2
$SG107261 DB	'err', 00H
$SG106828 DB	'W:\cpp\void\e\rx\cc\cc.c', 00H
	ORG $+3
$SG107536 DB	'war', 00H
$SG106830 DB	'assertion triggered', 00H
$SG107565 DB	'err', 00H
$SG106832 DB	'cctblhsh_', 00H
	ORG $+2
$SG107570 DB	'war', 00H
$SG106833 DB	'W:\cpp\void\e\rx\cc\cc.c', 00H
	ORG $+3
$SG107600 DB	'err', 00H
$SG106872 DB	'assertion triggered', 00H
$SG107604 DB	'dbg', 00H
$SG106874 DB	'cctblgeti_', 00H
	ORG $+1
$SG107617 DB	'err', 00H
$SG106875 DB	'W:\cpp\void\e\rx\cc\cc.c', 00H
	ORG $+3
$SG107640 DB	'err', 00H
$SG106893 DB	'assertion triggered', 00H
$SG107644 DB	'dbg', 00H
$SG106895 DB	'cctblputi_', 00H
	ORG $+1
$SG107650 DB	'err', 00H
$SG106896 DB	'W:\cpp\void\e\rx\cc\cc.c', 00H
	ORG $+3
$SG107655 DB	'err', 00H
$SG106899 DB	'already in table, added by %s[%i]::%s()', 00H
$SG106917 DB	'assertion triggered', 00H
$SG129817 DB	'rb', 00H
	ORG $+1
$SG106919 DB	'cctblseti_', 00H
	ORG $+1
$SG129868 DB	'rb', 00H
	ORG $+1
$SG106920 DB	'W:\cpp\void\e\rx\cc\cc.c', 00H
	ORG $+3
$SG130019 DB	'rb', 00H
	ORG $+1
$SG107096 DB	'assertion triggered', 00H
$SG130045 DB	'rb', 00H
	ORG $+1
$SG107098 DB	'ccprintf', 00H
	ORG $+3
stbi__l2h_gamma DD 0400ccccdr			; 2.2
$SG107099 DB	'W:\cpp\void\e\rx\cc\ccprintf.cc', 00H
$SG107124 DB	'%lli', 00H
	ORG $+3
$SG107127 DB	'%llu', 00H
	ORG $+3
$SG107130 DB	'assertion triggered', 00H
stbi__l2h_scale DD 03f800000r			; 1
$SG107132 DB	'ccprintf', 00H
	ORG $+3
stbi__h2l_gamma_i DD 03ee8ba2er			; 0.454545
$SG107133 DB	'W:\cpp\void\e\rx\cc\ccprintf.cc', 00H
$SG107212 DB	'corrupted heap block, head guard breached', 00H
	ORG $+2
stbi__h2l_scale_i DD 03f800000r			; 1
$SG107214 DB	'cccheck_ward', 00H
	ORG $+3
$SG107215 DB	'W:\cpp\void\e\rx\cc\cc.c', 00H
	ORG $+3
$SG130254 DB	'0', 00H, 00H, 00H
$SG107216 DB	'assertion triggered', 00H
$SG130367 DB	'0', 00H, 00H, 00H
$SG107218 DB	'cccheck_ward', 00H
	ORG $+3
$SG107219 DB	'W:\cpp\void\e\rx\cc\cc.c', 00H
	ORG $+3
$SG131543 DB	'bad H', 00H
	ORG $+2
$SG131548 DB	'bad TQ', 00H
	ORG $+1
$SG135068 DB	'-Y ', 00H
$SG107221 DB	'corrupted heap block, tail guard breached', 00H
	ORG $+2
$SG131575 DB	'no SOI', 00H
	ORG $+1
$SG135071 DB	'+X ', 00H
$SG107223 DB	'cccheck_ward', 00H
	ORG $+3
$SG107224 DB	'W:\cpp\void\e\rx\cc\cc.c', 00H
	ORG $+3
$SG131546 DB	'bad V', 00H
	ORG $+2
$SG131579 DB	'no SOF', 00H
	ORG $+1
$SG135148 DB	'-Y ', 00H
$SG107225 DB	'assertion triggered', 00H
$SG135150 DB	'+X ', 00H
$SG107227 DB	'cccheck_ward', 00H
	ORG $+3
$SG107228 DB	'W:\cpp\void\e\rx\cc\cc.c', 00H
	ORG $+3
$SG131555 DB	'bad H', 00H
	ORG $+2
$SG135060 DB	'#?RGBE', 00H
	ORG $+1
$SG135394 DB	'rb', 00H
	ORG $+1
$SG107230 DB	'assertion triggered', 00H
$SG135414 DB	'rb', 00H
	ORG $+1
$SG107232 DB	'cccheck_ward', 00H
	ORG $+3
$SG107233 DB	'W:\cpp\void\e\rx\cc\cc.c', 00H
	ORG $+3
$SG131557 DB	'bad V', 00H
	ORG $+2
$SG135653 DB	'wb', 00H
	ORG $+1
$SG107235 DB	'assertion triggered', 00H
$SG135724 DB	'0', 00H, 00H, 00H
$SG107237 DB	'cccheck_ward', 00H
	ORG $+3
$SG107238 DB	'W:\cpp\void\e\rx\cc\cc.c', 00H
	ORG $+3
$SG136198 DB	'p', 00H, 00H, 00H
$SG107240 DB	'assertion triggered', 00H
$SG136711 DB	'wb', 00H
	ORG $+1
$SG107242 DB	'cccheck_ward', 00H
	ORG $+3
$SG107243 DB	'W:\cpp\void\e\rx\cc\cc.c', 00H
	ORG $+3
$SG138068 DB	'err', 00H
$SG107245 DB	'assertion triggered', 00H
$SG138094 DB	'err', 00H
$SG107247 DB	'cccheck_ward', 00H
	ORG $+3
$SG107248 DB	'W:\cpp\void\e\rx\cc\cc.c', 00H
	ORG $+3
$SG138143 DB	'err', 00H
$SG107250 DB	'assertion triggered', 00H
$SG138148 DB	'err', 00H
$SG107252 DB	'cccheck_ward', 00H
	ORG $+3
$SG107253 DB	'W:\cpp\void\e\rx\cc\cc.c', 00H
	ORG $+3
$SG138153 DB	'r', 00H
	ORG $+2
$SG107255 DB	'assertion triggered', 00H
$SG138159 DB	'dbg', 00H
$SG107257 DB	'cccheck_ward', 00H
	ORG $+3
$SG107258 DB	'W:\cpp\void\e\rx\cc\cc.c', 00H
	ORG $+3
$SG138166 DB	'war', 00H
$SG107260 DB	'assertion triggered', 00H
$SG138263 DB	'dbg', 00H
$SG107262 DB	'cccheck_ward', 00H
	ORG $+3
$SG107263 DB	'W:\cpp\void\e\rx\cc\cc.c', 00H
	ORG $+3
$SG138268 DB	'war', 00H
$SG107535 DB	'flush failed', 00H
	ORG $+3
$SG107537 DB	'ccflushfile', 00H
$SG138321 DB	'war', 00H
$SG107538 DB	'W:\cpp\void\e\rx\cc\ccio.cc', 00H
$SG138327 DB	'war', 00H
$SG107564 DB	'assertion triggered', 00H
$SG138332 DB	'war', 00H
$SG107566 DB	'ccopenfile', 00H
	ORG $+1
$SG138337 DB	'war', 00H
$SG107567 DB	'W:\cpp\void\e\rx\cc\ccio.cc', 00H
$SG138350 DB	'err', 00H
$SG107569 DB	'''%s'': invalid file', 00H
	ORG $+1
$SG138356 DB	'err', 00H
$SG107571 DB	'ccopenfile', 00H
	ORG $+1
$SG138361 DB	'war', 00H
$SG107572 DB	'W:\cpp\void\e\rx\cc\ccio.cc', 00H
$SG138394 DB	'err', 00H
$SG107599 DB	'invalid file', 00H
	ORG $+3
$SG107601 DB	'ccpullfile', 00H
	ORG $+1
$SG138399 DB	'err', 00H
$SG107602 DB	'W:\cpp\void\e\rx\cc\ccio.cc', 00H
$SG138404 DB	'err', 00H
$SG107603 DB	'''%s'': %i,%i', 00H
$SG138410 DB	'err', 00H
$SG107605 DB	'ccpullfile', 00H
	ORG $+1
$SG138415 DB	'err', 00H
$SG107606 DB	'W:\cpp\void\e\rx\cc\ccio.cc', 00H
$SG138449 DB	'err', 00H
$SG107613 DB	'ccpullfile', 00H
	ORG $+1
$SG138454 DB	'err', 00H
$SG107614 DB	'W:\cpp\void\e\rx\cc\ccio.cc', 00H
$SG138459 DB	'err', 00H
$SG107616 DB	'''%s'': could not be read', 00H
$SG107618 DB	'ccpullfile', 00H
	ORG $+1
$SG138465 DB	'err', 00H
$SG107619 DB	'W:\cpp\void\e\rx\cc\ccio.cc', 00H
$SG138470 DB	'err', 00H
$SG107620 DB	'ccpullfile', 00H
	ORG $+1
$SG138498 DB	'err', 00H
$SG107621 DB	'W:\cpp\void\e\rx\cc\ccio.cc', 00H
$SG138538 DB	'err', 00H
$SG107639 DB	'invalid file', 00H
	ORG $+3
$SG107641 DB	'ccpushfile', 00H
	ORG $+1
$SG138543 DB	'err', 00H
$SG107642 DB	'W:\cpp\void\e\rx\cc\ccio.cc', 00H
$SG138562 DB	'err', 00H
$SG107643 DB	'''%s'': %i,%i', 00H
$SG138678 DB	'war', 00H
$SG107645 DB	'ccpushfile', 00H
	ORG $+1
$SG138714 DB	'err', 00H
$SG107646 DB	'W:\cpp\void\e\rx\cc\ccio.cc', 00H
$SG138719 DB	'err', 00H
$SG107649 DB	'''%s'': write failed', 00H
	ORG $+1
$SG138786 DB	'err', 00H
$SG107651 DB	'ccpushfile', 00H
	ORG $+1
$SG138793 DB	'err', 00H
$SG107652 DB	'W:\cpp\void\e\rx\cc\ccio.cc', 00H
$SG138798 DB	'err', 00H
$SG107654 DB	'assertion triggered', 00H
$SG138804 DB	'err', 00H
$SG107656 DB	'ccpushfile', 00H
	ORG $+1
$SG138851 DB	'err', 00H
$SG107657 DB	'W:\cpp\void\e\rx\cc\ccio.cc', 00H
$SG138864 DB	'err', 00H
stbi__stdio_callbacks DQ FLAT:stbi__stdio_read
	DQ	FLAT:stbi__stdio_skip
	DQ	FLAT:stbi__stdio_eof
$SG129476 DB	'stbi__malloc', 00H
	ORG $+3
$SG129477 DB	'W:\cpp\void\e\rx\stb_image.h', 00H
	ORG $+3
$SG129563 DB	'stbi_image_free', 00H
$SG129564 DB	'W:\cpp\void\e\rx\stb_image.h', 00H
	ORG $+3
$SG129622 DB	'unknown image type', 00H
	ORG $+1
$SG138880 DB	'err', 00H
$SG129647 DB	'outofmem', 00H
	ORG $+3
$SG138391 DB	'vs_5_0', 00H
	ORG $+1
$SG138885 DB	'err', 00H
$SG129648 DB	'stbi__convert_16_to_8', 00H
	ORG $+2
$SG129649 DB	'W:\cpp\void\e\rx\stb_image.h', 00H
	ORG $+3
$SG129675 DB	'outofmem', 00H
	ORG $+3
$SG138446 DB	'ps_5_0', 00H
	ORG $+1
$SG138941 DB	'err', 00H
$SG129676 DB	'stbi__convert_8_to_16', 00H
	ORG $+2
$SG129677 DB	'W:\cpp\void\e\rx\stb_image.h', 00H
	ORG $+3
$SG129745 DB	'W', 00H, ':', 00H, '\', 00H, 'c', 00H, 'p', 00H, 'p', 00H
	DB	'\', 00H, 'v', 00H, 'o', 00H, 'i', 00H, 'd', 00H, '\', 00H, 'e'
	DB	00H, '\', 00H, 'r', 00H, 'x', 00H, '\', 00H, 's', 00H, 't', 00H
	DB	'b', 00H, '_', 00H, 'i', 00H, 'm', 00H, 'a', 00H, 'g', 00H, 'e'
	DB	00H, '.', 00H, 'h', 00H, 00H, 00H
	ORG $+6
$SG129746 DB	'r', 00H, 'i', 00H, '.', 00H, 'b', 00H, 'i', 00H, 't', 00H
	DB	's', 00H, '_', 00H, 'p', 00H, 'e', 00H, 'r', 00H, '_', 00H, 'c'
	DB	00H, 'h', 00H, 'a', 00H, 'n', 00H, 'n', 00H, 'e', 00H, 'l', 00H
	DB	' ', 00H, '=', 00H, '=', 00H, ' ', 00H, '8', 00H, ' ', 00H, '|'
	DB	00H, '|', 00H, ' ', 00H, 'r', 00H, 'i', 00H, '.', 00H, 'b', 00H
	DB	'i', 00H, 't', 00H, 's', 00H, '_', 00H, 'p', 00H, 'e', 00H, 'r'
	DB	00H, '_', 00H, 'c', 00H, 'h', 00H, 'a', 00H, 'n', 00H, 'n', 00H
	DB	'e', 00H, 'l', 00H, ' ', 00H, '=', 00H, '=', 00H, ' ', 00H, '1'
	DB	00H, '6', 00H, 00H, 00H
$SG138946 DB	'err', 00H
$SG129772 DB	'W', 00H, ':', 00H, '\', 00H, 'c', 00H, 'p', 00H, 'p', 00H
	DB	'\', 00H, 'v', 00H, 'o', 00H, 'i', 00H, 'd', 00H, '\', 00H, 'e'
	DB	00H, '\', 00H, 'r', 00H, 'x', 00H, '\', 00H, 's', 00H, 't', 00H
	DB	'b', 00H, '_', 00H, 'i', 00H, 'm', 00H, 'a', 00H, 'g', 00H, 'e'
	DB	00H, '.', 00H, 'h', 00H, 00H, 00H
	ORG $+6
$SG129773 DB	'r', 00H, 'i', 00H, '.', 00H, 'b', 00H, 'i', 00H, 't', 00H
	DB	's', 00H, '_', 00H, 'p', 00H, 'e', 00H, 'r', 00H, '_', 00H, 'c'
	DB	00H, 'h', 00H, 'a', 00H, 'n', 00H, 'n', 00H, 'e', 00H, 'l', 00H
	DB	' ', 00H, '=', 00H, '=', 00H, ' ', 00H, '8', 00H, ' ', 00H, '|'
	DB	00H, '|', 00H, ' ', 00H, 'r', 00H, 'i', 00H, '.', 00H, 'b', 00H
	DB	'i', 00H, 't', 00H, 's', 00H, '_', 00H, 'p', 00H, 'e', 00H, 'r'
	DB	00H, '_', 00H, 'c', 00H, 'h', 00H, 'a', 00H, 'n', 00H, 'n', 00H
	DB	'e', 00H, 'l', 00H, ' ', 00H, '=', 00H, '=', 00H, ' ', 00H, '1'
	DB	00H, '6', 00H, 00H, 00H
$SG139195 DB	'err', 00H
$SG129819 DB	'can''t fopen', 00H
$SG139220 DB	'png', 00H
$SG129870 DB	'can''t fopen', 00H
$SG139221 DB	'jpg', 00H
$SG129972 DB	'unknown image type', 00H
	ORG $+1
$SG139222 DB	'bmp', 00H
$SG130021 DB	'can''t fopen', 00H
$SG139289 DB	'err', 00H
$SG130234 DB	'W', 00H, ':', 00H, '\', 00H, 'c', 00H, 'p', 00H, 'p', 00H
	DB	'\', 00H, 'v', 00H, 'o', 00H, 'i', 00H, 'd', 00H, '\', 00H, 'e'
	DB	00H, '\', 00H, 'r', 00H, 'x', 00H, '\', 00H, 's', 00H, 't', 00H
	DB	'b', 00H, '_', 00H, 'i', 00H, 'm', 00H, 'a', 00H, 'g', 00H, 'e'
	DB	00H, '.', 00H, 'h', 00H, 00H, 00H
	ORG $+2
$SG138715 DB	'rxclip', 00H
	ORG $+1
$SG139293 DB	'err', 00H
$SG130235 DB	'r', 00H, 'e', 00H, 'q', 00H, '_', 00H, 'c', 00H, 'o', 00H
	DB	'm', 00H, 'p', 00H, ' ', 00H, '>', 00H, '=', 00H, ' ', 00H, '1'
	DB	00H, ' ', 00H, '&', 00H, '&', 00H, ' ', 00H, 'r', 00H, 'e', 00H
	DB	'q', 00H, '_', 00H, 'c', 00H, 'o', 00H, 'm', 00H, 'p', 00H, ' '
	DB	00H, '<', 00H, '=', 00H, ' ', 00H, '4', 00H, 00H, 00H
	ORG $+2
$SG130237 DB	'stbi__convert_format', 00H
	ORG $+3
$SG130238 DB	'W:\cpp\void\e\rx\stb_image.h', 00H
	ORG $+3
$SG130239 DB	'outofmem', 00H
	ORG $+3
$SG138720 DB	'rxclip', 00H
	ORG $+1
$SG139299 DB	'err', 00H
$SG130253 DB	'W', 00H, ':', 00H, '\', 00H, 'c', 00H, 'p', 00H, 'p', 00H
	DB	'\', 00H, 'v', 00H, 'o', 00H, 'i', 00H, 'd', 00H, '\', 00H, 'e'
	DB	00H, '\', 00H, 'r', 00H, 'x', 00H, '\', 00H, 's', 00H, 't', 00H
	DB	'b', 00H, '_', 00H, 'i', 00H, 'm', 00H, 'a', 00H, 'g', 00H, 'e'
	DB	00H, '.', 00H, 'h', 00H, 00H, 00H
	ORG $+2
$SG139303 DB	'err', 00H
$SG130255 DB	'stbi__convert_format', 00H
	ORG $+3
$SG130256 DB	'W:\cpp\void\e\rx\stb_image.h', 00H
	ORG $+3
$SG130257 DB	'stbi__convert_format', 00H
	ORG $+3
$SG130258 DB	'W:\cpp\void\e\rx\stb_image.h', 00H
	ORG $+3
$SG130259 DB	'unsupported', 00H
$SG139348 DB	'err', 00H
$SG130260 DB	'stbi__convert_format', 00H
	ORG $+3
$SG130261 DB	'W:\cpp\void\e\rx\stb_image.h', 00H
	ORG $+3
$SG130347 DB	'W', 00H, ':', 00H, '\', 00H, 'c', 00H, 'p', 00H, 'p', 00H
	DB	'\', 00H, 'v', 00H, 'o', 00H, 'i', 00H, 'd', 00H, '\', 00H, 'e'
	DB	00H, '\', 00H, 'r', 00H, 'x', 00H, '\', 00H, 's', 00H, 't', 00H
	DB	'b', 00H, '_', 00H, 'i', 00H, 'm', 00H, 'a', 00H, 'g', 00H, 'e'
	DB	00H, '.', 00H, 'h', 00H, 00H, 00H
	ORG $+2
$SG139353 DB	'err', 00H
$SG130348 DB	'r', 00H, 'e', 00H, 'q', 00H, '_', 00H, 'c', 00H, 'o', 00H
	DB	'm', 00H, 'p', 00H, ' ', 00H, '>', 00H, '=', 00H, ' ', 00H, '1'
	DB	00H, ' ', 00H, '&', 00H, '&', 00H, ' ', 00H, 'r', 00H, 'e', 00H
	DB	'q', 00H, '_', 00H, 'c', 00H, 'o', 00H, 'm', 00H, 'p', 00H, ' '
	DB	00H, '<', 00H, '=', 00H, ' ', 00H, '4', 00H, 00H, 00H
	ORG $+2
$SG130350 DB	'stbi__convert_format16', 00H
	ORG $+1
$SG130351 DB	'W:\cpp\void\e\rx\stb_image.h', 00H
	ORG $+3
$SG130352 DB	'outofmem', 00H
	ORG $+3
$SG139374 DB	'err', 00H
$SG130366 DB	'W', 00H, ':', 00H, '\', 00H, 'c', 00H, 'p', 00H, 'p', 00H
	DB	'\', 00H, 'v', 00H, 'o', 00H, 'i', 00H, 'd', 00H, '\', 00H, 'e'
	DB	00H, '\', 00H, 'r', 00H, 'x', 00H, '\', 00H, 's', 00H, 't', 00H
	DB	'b', 00H, '_', 00H, 'i', 00H, 'm', 00H, 'a', 00H, 'g', 00H, 'e'
	DB	00H, '.', 00H, 'h', 00H, 00H, 00H
	ORG $+2
$SG139432 DB	'err', 00H
$SG130368 DB	'stbi__convert_format16', 00H
	ORG $+1
$SG130369 DB	'W:\cpp\void\e\rx\stb_image.h', 00H
	ORG $+3
$SG130370 DB	'stbi__convert_format16', 00H
	ORG $+1
$SG130371 DB	'W:\cpp\void\e\rx\stb_image.h', 00H
	ORG $+3
$SG130372 DB	'unsupported', 00H
$SG139440 DB	'err', 00H
$SG130373 DB	'stbi__convert_format16', 00H
	ORG $+1
$SG130374 DB	'W:\cpp\void\e\rx\stb_image.h', 00H
	ORG $+3
$SG130408 DB	'stbi__ldr_to_hdr', 00H
	ORG $+3
$SG139444 DB	'error', 00H
	ORG $+2
$SG139446 DB	'err', 00H
$SG130409 DB	'W:\cpp\void\e\rx\stb_image.h', 00H
	ORG $+3
$SG130410 DB	'outofmem', 00H
	ORG $+3
$SG139644 DB	'rxtick', 00H
	ORG $+1
$SG139648 DB	'err', 00H
$SG130414 DB	'stbi__ldr_to_hdr', 00H
	ORG $+3
$SG139649 DB	'rxtick', 00H
	ORG $+1
$SG139753 DB	'err', 00H
$SG130415 DB	'W:\cpp\void\e\rx\stb_image.h', 00H
	ORG $+3
$SG130451 DB	'stbi__hdr_to_ldr', 00H
	ORG $+3
$SG139748 DB	'MainVS', 00H
	ORG $+1
$SG139756 DB	'.', 00H
	ORG $+2
$SG130452 DB	'W:\cpp\void\e\rx\stb_image.h', 00H
	ORG $+3
$SG130453 DB	'outofmem', 00H
	ORG $+3
$SG139750 DB	'MainPS', 00H
	ORG $+1
$SG140719 DB	'err', 00H
$SG130461 DB	'stbi__hdr_to_ldr', 00H
	ORG $+3
$SG139754 DB	'rxinit', 00H
	ORG $+1
$SG140724 DB	'err', 00H
$SG130462 DB	'W:\cpp\void\e\rx\stb_image.h', 00H
	ORG $+3
$SG130587 DB	'bad code lengths', 00H
	ORG $+3
$SG140864 DB	'[yes]', 00H
	ORG $+2
$SG140891 DB	'[-]', 00H
$SG130647 DB	'W', 00H, ':', 00H, '\', 00H, 'c', 00H, 'p', 00H, 'p', 00H
	DB	'\', 00H, 'v', 00H, 'o', 00H, 'i', 00H, 'd', 00H, '\', 00H, 'e'
	DB	00H, '\', 00H, 'r', 00H, 'x', 00H, '\', 00H, 's', 00H, 't', 00H
	DB	'b', 00H, '_', 00H, 'i', 00H, 'm', 00H, 'a', 00H, 'g', 00H, 'e'
	DB	00H, '.', 00H, 'h', 00H, 00H, 00H
	ORG $+6
$SG130708 DB	'bad huffman code', 00H
	ORG $+7
$SG130648 DB	'(', 00H, '(', 00H, '(', 00H, 'j', 00H, '-', 00H, '>', 00H
	DB	'c', 00H, 'o', 00H, 'd', 00H, 'e', 00H, '_', 00H, 'b', 00H, 'u'
	DB	00H, 'f', 00H, 'f', 00H, 'e', 00H, 'r', 00H, ')', 00H, ' ', 00H
	DB	'>', 00H, '>', 00H, ' ', 00H, '(', 00H, '3', 00H, '2', 00H, ' '
	DB	00H, '-', 00H, ' ', 00H, 'h', 00H, '-', 00H, '>', 00H, 's', 00H
	DB	'i', 00H, 'z', 00H, 'e', 00H, '[', 00H, 'c', 00H, ']', 00H, ')'
	DB	00H, ')', 00H, ' ', 00H, '&', 00H, ' ', 00H, 's', 00H, 't', 00H
	DB	'b', 00H, 'i', 00H, '_', 00H, '_', 00H, 'b', 00H, 'm', 00H, 'a'
	DB	00H, 's', 00H, 'k', 00H, '[', 00H, 'h', 00H, '-', 00H, '>', 00H
	DB	's', 00H, 'i', 00H, 'z', 00H, 'e', 00H, '[', 00H, 'c', 00H, ']'
	DB	00H, ']', 00H, ')', 00H, ' ', 00H, '=', 00H, '=', 00H, ' ', 00H
	DB	'h', 00H, '-', 00H, '>', 00H, 'c', 00H, 'o', 00H, 'd', 00H, 'e'
	DB	00H, '[', 00H, 'c', 00H, ']', 00H, 00H, 00H
$SG140892 DB	'[+]', 00H
$SG130713 DB	'bad huffman code', 00H
	ORG $+3
$SG140865 DB	'[nop]', 00H
	ORG $+2
$SG141126 DB	'r', 00H
	ORG $+2
$SG130733 DB	'can''t merge dc and ac', 00H
	ORG $+2
$SG130739 DB	'can''t merge dc and ac', 00H
	ORG $+2
$SG130780 DB	'can''t merge dc and ac', 00H
	ORG $+2
$SG130788 DB	'bad huffman code', 00H
	ORG $+3
$SG141137 DB	'w', 00H
	ORG $+2
$SG130801 DB	'bad huffman code', 00H
	ORG $+3
$SG141237 DB	'%i,%i', 00H
	ORG $+6
$SG130808 DB	'bad huffman code', 00H
	ORG $+7
$SG131387 DB	'expected marker', 00H
$SG131390 DB	'bad DRI len', 00H
	ORG $+4
$SG131393 DB	'bad DQT type', 00H
	ORG $+3
$SG131395 DB	'bad DQT table', 00H
	ORG $+2
$SG131399 DB	'bad DHT header', 00H
	ORG $+1
$SG131411 DB	'bad COM len', 00H
	ORG $+4
$SG131412 DB	'bad APP len', 00H
	ORG $+4
$SG131420 DB	'unknown marker', 00H
	ORG $+1
$SG131440 DB	'bad SOS component count', 00H
$SG131442 DB	'bad SOS len', 00H
	ORG $+4
$SG131446 DB	'bad DC huff', 00H
	ORG $+4
$SG131448 DB	'bad AC huff', 00H
	ORG $+4
$SG131453 DB	'bad SOS', 00H
$SG131455 DB	'bad SOS', 00H
$SG131458 DB	'bad SOS', 00H
$SG131475 DB	'stbi__free_jpeg_components', 00H
	ORG $+5
$SG131476 DB	'W:\cpp\void\e\rx\stb_image.h', 00H
	ORG $+3
$SG131478 DB	'stbi__free_jpeg_components', 00H
	ORG $+5
$SG131479 DB	'W:\cpp\void\e\rx\stb_image.h', 00H
	ORG $+3
$SG131481 DB	'stbi__free_jpeg_components', 00H
	ORG $+5
$SG131482 DB	'W:\cpp\void\e\rx\stb_image.h', 00H
	ORG $+3
$SG131525 DB	'bad SOF len', 00H
	ORG $+4
$SG131527 DB	'only 8-bit', 00H
	ORG $+5
$SG131529 DB	'no header height', 00H
	ORG $+7
$SG131531 DB	'0 width', 00H
$SG131533 DB	'too large', 00H
	ORG $+6
$SG131535 DB	'too large', 00H
	ORG $+6
$SG131537 DB	'bad component count', 00H
	ORG $+4
$SG131539 DB	'bad SOF len', 00H
	ORG $+4
$SG131551 DB	'too large', 00H
	ORG $+6
$SG131559 DB	'outofmem', 00H
	ORG $+7
$SG131562 DB	'outofmem', 00H
	ORG $+7
$SG131608 DB	'bad DNL len', 00H
	ORG $+4
$SG131610 DB	'bad DNL height', 00H
	ORG $+1
$SG132039 DB	'bad req_comp', 00H
	ORG $+3
$SG132045 DB	'outofmem', 00H
	ORG $+7
$SG132055 DB	'outofmem', 00H
	ORG $+7
$SG132104 DB	'outofmem', 00H
	ORG $+7
$SG132105 DB	'stbi__jpeg_load', 00H
$SG132106 DB	'W:\cpp\void\e\rx\stb_image.h', 00H
	ORG $+3
$SG132115 DB	'outofmem', 00H
	ORG $+7
$SG132116 DB	'stbi__jpeg_test', 00H
$SG132117 DB	'W:\cpp\void\e\rx\stb_image.h', 00H
	ORG $+3
$SG132146 DB	'outofmem', 00H
	ORG $+7
$SG132147 DB	'stbi__jpeg_info', 00H
$SG132148 DB	'W:\cpp\void\e\rx\stb_image.h', 00H
	ORG $+3
$SG132169 DB	'W', 00H, ':', 00H, '\', 00H, 'c', 00H, 'p', 00H, 'p', 00H
	DB	'\', 00H, 'v', 00H, 'o', 00H, 'i', 00H, 'd', 00H, '\', 00H, 'e'
	DB	00H, '\', 00H, 'r', 00H, 'x', 00H, '\', 00H, 's', 00H, 't', 00H
	DB	'b', 00H, '_', 00H, 'i', 00H, 'm', 00H, 'a', 00H, 'g', 00H, 'e'
	DB	00H, '.', 00H, 'h', 00H, 00H, 00H
	ORG $+6
$SG132170 DB	'b', 00H, 'i', 00H, 't', 00H, 's', 00H, ' ', 00H, '<', 00H
	DB	'=', 00H, ' ', 00H, '1', 00H, '6', 00H, 00H, 00H
	ORG $+2
$SG132208 DB	'bad sizes', 00H
	ORG $+6
$SG132211 DB	'bad codelengths', 00H
$SG132299 DB	'output buffer limit', 00H
	ORG $+4
$SG132301 DB	'outofmem', 00H
	ORG $+7
$SG132303 DB	'outofmem', 00H
	ORG $+7
$SG132304 DB	'stbi__zexpand', 00H
	ORG $+2
$SG132305 DB	'W:\cpp\void\e\rx\stb_image.h', 00H
	ORG $+3
$SG132307 DB	'outofmem', 00H
	ORG $+7
$SG132336 DB	'bad huffman code', 00H
	ORG $+7
$SG132342 DB	'bad huffman code', 00H
	ORG $+7
$SG132345 DB	'bad dist', 00H
	ORG $+7
$SG132380 DB	'bad codelengths', 00H
$SG132386 DB	'bad codelengths', 00H
$SG132391 DB	'bad codelengths', 00H
$SG132393 DB	'bad codelengths', 00H
$SG132395 DB	'bad codelengths', 00H
$SG132413 DB	'zlib corrupt', 00H
	ORG $+3
$SG132415 DB	'zlib corrupt', 00H
	ORG $+3
$SG132417 DB	'read past buffer', 00H
	ORG $+7
$SG132428 DB	'bad zlib header', 00H
$SG132430 DB	'bad zlib header', 00H
$SG132432 DB	'no preset dict', 00H
	ORG $+1
$SG132434 DB	'bad compression', 00H
$SG132495 DB	'stbi_zlib_decode_malloc_guesssize', 00H
	ORG $+6
$SG132496 DB	'W:\cpp\void\e\rx\stb_image.h', 00H
	ORG $+3
$SG132528 DB	'stbi_zlib_decode_malloc_guesssize_headerflag', 00H
	ORG $+3
$SG132529 DB	'W:\cpp\void\e\rx\stb_image.h', 00H
	ORG $+3
$SG132565 DB	'stbi_zlib_decode_noheader_malloc', 00H
	ORG $+7
$SG132566 DB	'W:\cpp\void\e\rx\stb_image.h', 00H
	ORG $+3
$SG132602 DB	'bad png sig', 00H
first_row_filter DB 00H
	DB	01H
	DB	00H
	DB	05H
	DB	06H
	ORG $+7
$SG132793 DB	'W', 00H, ':', 00H, '\', 00H, 'c', 00H, 'p', 00H, 'p', 00H
	DB	'\', 00H, 'v', 00H, 'o', 00H, 'i', 00H, 'd', 00H, '\', 00H, 'e'
	DB	00H, '\', 00H, 'r', 00H, 'x', 00H, '\', 00H, 's', 00H, 't', 00H
	DB	'b', 00H, '_', 00H, 'i', 00H, 'm', 00H, 'a', 00H, 'g', 00H, 'e'
	DB	00H, '.', 00H, 'h', 00H, 00H, 00H
	ORG $+6
$SG132800 DB	'not enough pixels', 00H
	ORG $+6
$SG132794 DB	'o', 00H, 'u', 00H, 't', 00H, '_', 00H, 'n', 00H, ' ', 00H
	DB	'=', 00H, '=', 00H, ' ', 00H, 's', 00H, '-', 00H, '>', 00H, 'i'
	DB	00H, 'm', 00H, 'g', 00H, '_', 00H, 'n', 00H, ' ', 00H, '|', 00H
	DB	'|', 00H, ' ', 00H, 'o', 00H, 'u', 00H, 't', 00H, '_', 00H, 'n'
	DB	00H, ' ', 00H, '=', 00H, '=', 00H, ' ', 00H, 's', 00H, '-', 00H
	DB	'>', 00H, 'i', 00H, 'm', 00H, 'g', 00H, '_', 00H, 'n', 00H, '+'
	DB	00H, '1', 00H, 00H, 00H
	ORG $+6
$SG132796 DB	'outofmem', 00H
	ORG $+7
$SG132798 DB	'too large', 00H
	ORG $+6
$SG132802 DB	'invalid filter', 00H
	ORG $+1
$SG132805 DB	'invalid width', 00H
	ORG $+2
$SG132830 DB	'W', 00H, ':', 00H, '\', 00H, 'c', 00H, 'p', 00H, 'p', 00H
	DB	'\', 00H, 'v', 00H, 'o', 00H, 'i', 00H, 'd', 00H, '\', 00H, 'e'
	DB	00H, '\', 00H, 'r', 00H, 'x', 00H, '\', 00H, 's', 00H, 't', 00H
	DB	'b', 00H, '_', 00H, 'i', 00H, 'm', 00H, 'a', 00H, 'g', 00H, 'e'
	DB	00H, '.', 00H, 'h', 00H, 00H, 00H
	ORG $+6
$SG132831 DB	'i', 00H, 'm', 00H, 'g', 00H, '_', 00H, 'n', 00H, '+', 00H
	DB	'1', 00H, ' ', 00H, '=', 00H, '=', 00H, ' ', 00H, 'o', 00H, 'u'
	DB	00H, 't', 00H, '_', 00H, 'n', 00H, 00H, 00H
	ORG $+6
$SG132861 DB	'W', 00H, ':', 00H, '\', 00H, 'c', 00H, 'p', 00H, 'p', 00H
	DB	'\', 00H, 'v', 00H, 'o', 00H, 'i', 00H, 'd', 00H, '\', 00H, 'e'
	DB	00H, '\', 00H, 'r', 00H, 'x', 00H, '\', 00H, 's', 00H, 't', 00H
	DB	'b', 00H, '_', 00H, 'i', 00H, 'm', 00H, 'a', 00H, 'g', 00H, 'e'
	DB	00H, '.', 00H, 'h', 00H, 00H, 00H
	ORG $+6
$SG132862 DB	'i', 00H, 'm', 00H, 'g', 00H, '_', 00H, 'n', 00H, ' ', 00H
	DB	'=', 00H, '=', 00H, ' ', 00H, '3', 00H, 00H, 00H
	ORG $+2
$SG132907 DB	'outofmem', 00H
	ORG $+7
$SG132910 DB	'stbi__create_png_image', 00H
	ORG $+1
$SG132911 DB	'W:\cpp\void\e\rx\stb_image.h', 00H
	ORG $+3
$SG132912 DB	'stbi__create_png_image', 00H
	ORG $+1
$SG132913 DB	'W:\cpp\void\e\rx\stb_image.h', 00H
	ORG $+3
$SG132934 DB	'W', 00H, ':', 00H, '\', 00H, 'c', 00H, 'p', 00H, 'p', 00H
	DB	'\', 00H, 'v', 00H, 'o', 00H, 'i', 00H, 'd', 00H, '\', 00H, 'e'
	DB	00H, '\', 00H, 'r', 00H, 'x', 00H, '\', 00H, 's', 00H, 't', 00H
	DB	'b', 00H, '_', 00H, 'i', 00H, 'm', 00H, 'a', 00H, 'g', 00H, 'e'
	DB	00H, '.', 00H, 'h', 00H, 00H, 00H
	ORG $+6
$SG132935 DB	'o', 00H, 'u', 00H, 't', 00H, '_', 00H, 'n', 00H, ' ', 00H
	DB	'=', 00H, '=', 00H, ' ', 00H, '2', 00H, ' ', 00H, '|', 00H, '|'
	DB	00H, ' ', 00H, 'o', 00H, 'u', 00H, 't', 00H, '_', 00H, 'n', 00H
	DB	' ', 00H, '=', 00H, '=', 00H, ' ', 00H, '4', 00H, 00H, 00H
	ORG $+6
$SG132960 DB	'W', 00H, ':', 00H, '\', 00H, 'c', 00H, 'p', 00H, 'p', 00H
	DB	'\', 00H, 'v', 00H, 'o', 00H, 'i', 00H, 'd', 00H, '\', 00H, 'e'
	DB	00H, '\', 00H, 'r', 00H, 'x', 00H, '\', 00H, 's', 00H, 't', 00H
	DB	'b', 00H, '_', 00H, 'i', 00H, 'm', 00H, 'a', 00H, 'g', 00H, 'e'
	DB	00H, '.', 00H, 'h', 00H, 00H, 00H
	ORG $+6
$SG132961 DB	'o', 00H, 'u', 00H, 't', 00H, '_', 00H, 'n', 00H, ' ', 00H
	DB	'=', 00H, '=', 00H, ' ', 00H, '2', 00H, ' ', 00H, '|', 00H, '|'
	DB	00H, ' ', 00H, 'o', 00H, 'u', 00H, 't', 00H, '_', 00H, 'n', 00H
	DB	' ', 00H, '=', 00H, '=', 00H, ' ', 00H, '4', 00H, 00H, 00H
	ORG $+6
$SG132992 DB	'outofmem', 00H
	ORG $+7
$SG132995 DB	'stbi__expand_png_palette', 00H
	ORG $+7
$SG132996 DB	'W:\cpp\void\e\rx\stb_image.h', 00H
	ORG $+3
$SG133042 DB	'W', 00H, ':', 00H, '\', 00H, 'c', 00H, 'p', 00H, 'p', 00H
	DB	'\', 00H, 'v', 00H, 'o', 00H, 'i', 00H, 'd', 00H, '\', 00H, 'e'
	DB	00H, '\', 00H, 'r', 00H, 'x', 00H, '\', 00H, 's', 00H, 't', 00H
	DB	'b', 00H, '_', 00H, 'i', 00H, 'm', 00H, 'a', 00H, 'g', 00H, 'e'
	DB	00H, '.', 00H, 'h', 00H, 00H, 00H
	ORG $+6
$SG133043 DB	's', 00H, '-', 00H, '>', 00H, 'i', 00H, 'm', 00H, 'g', 00H
	DB	'_', 00H, 'o', 00H, 'u', 00H, 't', 00H, '_', 00H, 'n', 00H, ' '
	DB	00H, '=', 00H, '=', 00H, ' ', 00H, '4', 00H, 00H, 00H
	ORG $+4
?invalid_chunk@?BO@??stbi__parse_png_file@@9@9 DB 'XXXX PNG chunk not kno'
	DB	'wn', 00H					; `stbi__parse_png_file'::`30'::invalid_chunk
	ORG $+7
$SG133150 DB	'multiple IHDR', 00H
	ORG $+2
$SG133152 DB	'bad IHDR len', 00H
	ORG $+3
$SG133154 DB	'too large', 00H
	ORG $+6
$SG133156 DB	'too large', 00H
	ORG $+6
$SG133158 DB	'1/2/4/8/16-bit only', 00H
	ORG $+4
$SG133160 DB	'bad ctype', 00H
	ORG $+6
$SG133162 DB	'bad ctype', 00H
	ORG $+6
$SG133166 DB	'bad ctype', 00H
	ORG $+6
$SG133168 DB	'bad comp method', 00H
$SG133170 DB	'bad filter method', 00H
	ORG $+6
$SG133172 DB	'bad interlace method', 00H
	ORG $+3
$SG133175 DB	'0-pixel image', 00H
	ORG $+2
$SG133179 DB	'too large', 00H
	ORG $+6
$SG133182 DB	'too large', 00H
	ORG $+6
$SG133185 DB	'first not IHDR', 00H
	ORG $+1
$SG133187 DB	'invalid PLTE', 00H
	ORG $+3
$SG133189 DB	'invalid PLTE', 00H
	ORG $+3
$SG133192 DB	'first not IHDR', 00H
	ORG $+1
$SG133194 DB	'tRNS after IDAT', 00H
$SG133199 DB	'tRNS before PLTE', 00H
	ORG $+7
$SG133201 DB	'bad tRNS len', 00H
	ORG $+3
$SG133203 DB	'tRNS with alpha', 00H
$SG133205 DB	'bad tRNS len', 00H
	ORG $+3
$SG133210 DB	'first not IHDR', 00H
	ORG $+1
$SG133212 DB	'no PLTE', 00H
$SG133217 DB	'stbi__parse_png_file', 00H
	ORG $+3
$SG133218 DB	'W:\cpp\void\e\rx\stb_image.h', 00H
	ORG $+3
$SG133220 DB	'outofmem', 00H
	ORG $+7
$SG133222 DB	'outofdata', 00H
	ORG $+6
$SG133225 DB	'first not IHDR', 00H
	ORG $+1
$SG133228 DB	'no IDAT', 00H
$SG133230 DB	'stbi__parse_png_file', 00H
	ORG $+3
$SG133231 DB	'W:\cpp\void\e\rx\stb_image.h', 00H
	ORG $+3
$SG133248 DB	'stbi__parse_png_file', 00H
	ORG $+3
$SG133249 DB	'W:\cpp\void\e\rx\stb_image.h', 00H
	ORG $+3
$SG133252 DB	'first not IHDR', 00H
	ORG $+1
$SG133287 DB	'bad req_comp', 00H
	ORG $+3
$SG133293 DB	'bad bits_per_channel', 00H
	ORG $+3
$SG133299 DB	'stbi__do_png', 00H
	ORG $+3
$SG133300 DB	'W:\cpp\void\e\rx\stb_image.h', 00H
	ORG $+3
$SG133301 DB	'stbi__do_png', 00H
	ORG $+3
$SG133302 DB	'W:\cpp\void\e\rx\stb_image.h', 00H
	ORG $+3
$SG133303 DB	'stbi__do_png', 00H
	ORG $+3
$SG133304 DB	'W:\cpp\void\e\rx\stb_image.h', 00H
	ORG $+3
?mul_table@?1??stbi__shiftsigned@@9@9 DD 00H		; `stbi__shiftsigned'::`2'::mul_table
	DD	0ffH
	DD	055H
	DD	049H
	DD	011H
	DD	021H
	DD	041H
	DD	081H
	DD	01H
	ORG $+4
?shift_table@?1??stbi__shiftsigned@@9@9 DD 00H		; `stbi__shiftsigned'::`2'::shift_table
	DD	00H
	DD	00H
	DD	01H
	DD	00H
	DD	02H
	DD	04H
	DD	06H
	DD	00H
	ORG $+4
$SG133403 DB	'W', 00H, ':', 00H, '\', 00H, 'c', 00H, 'p', 00H, 'p', 00H
	DB	'\', 00H, 'v', 00H, 'o', 00H, 'i', 00H, 'd', 00H, '\', 00H, 'e'
	DB	00H, '\', 00H, 'r', 00H, 'x', 00H, '\', 00H, 's', 00H, 't', 00H
	DB	'b', 00H, '_', 00H, 'i', 00H, 'm', 00H, 'a', 00H, 'g', 00H, 'e'
	DB	00H, '.', 00H, 'h', 00H, 00H, 00H
	ORG $+6
$SG133404 DB	'v', 00H, ' ', 00H, '<', 00H, ' ', 00H, '2', 00H, '5', 00H
	DB	'6', 00H, 00H, 00H
$SG133405 DB	'W', 00H, ':', 00H, '\', 00H, 'c', 00H, 'p', 00H, 'p', 00H
	DB	'\', 00H, 'v', 00H, 'o', 00H, 'i', 00H, 'd', 00H, '\', 00H, 'e'
	DB	00H, '\', 00H, 'r', 00H, 'x', 00H, '\', 00H, 's', 00H, 't', 00H
	DB	'b', 00H, '_', 00H, 'i', 00H, 'm', 00H, 'a', 00H, 'g', 00H, 'e'
	DB	00H, '.', 00H, 'h', 00H, 00H, 00H
	ORG $+6
$SG133406 DB	'b', 00H, 'i', 00H, 't', 00H, 's', 00H, ' ', 00H, '>', 00H
	DB	'=', 00H, ' ', 00H, '0', 00H, ' ', 00H, '&', 00H, '&', 00H, ' '
	DB	00H, 'b', 00H, 'i', 00H, 't', 00H, 's', 00H, ' ', 00H, '<', 00H
	DB	'=', 00H, ' ', 00H, '8', 00H, 00H, 00H
	ORG $+2
$SG133485 DB	'not BMP', 00H
$SG133487 DB	'bad BMP', 00H
$SG133489 DB	'unknown BMP', 00H
	ORG $+4
$SG133493 DB	'bad BMP', 00H
$SG133497 DB	'BMP RLE', 00H
$SG133499 DB	'BMP JPEG/PNG', 00H
	ORG $+3
$SG133501 DB	'bad BMP', 00H
$SG133513 DB	'bad BMP', 00H
$SG133514 DB	'bad BMP', 00H
$SG133516 DB	'bad BMP', 00H
$SG133664 DB	'too large', 00H
	ORG $+6
$SG133666 DB	'too large', 00H
	ORG $+6
$SG133673 DB	'bad offset', 00H
	ORG $+5
$SG133679 DB	'too large', 00H
	ORG $+6
$SG133681 DB	'outofmem', 00H
	ORG $+7
$SG133686 DB	'stbi__bmp_load', 00H
	ORG $+1
$SG133687 DB	'W:\cpp\void\e\rx\stb_image.h', 00H
	ORG $+3
$SG133688 DB	'invalid', 00H
$SG133696 DB	'stbi__bmp_load', 00H
	ORG $+1
$SG133697 DB	'W:\cpp\void\e\rx\stb_image.h', 00H
	ORG $+3
$SG133698 DB	'bad bpp', 00H
$SG133719 DB	'stbi__bmp_load', 00H
	ORG $+1
$SG133720 DB	'W:\cpp\void\e\rx\stb_image.h', 00H
	ORG $+3
$SG133721 DB	'bad masks', 00H
	ORG $+6
$SG133724 DB	'stbi__bmp_load', 00H
	ORG $+1
$SG133725 DB	'W:\cpp\void\e\rx\stb_image.h', 00H
	ORG $+3
$SG133726 DB	'bad masks', 00H
	ORG $+6
$SG133939 DB	'too large', 00H
	ORG $+6
$SG133941 DB	'too large', 00H
	ORG $+6
$SG133946 DB	'bad format', 00H
	ORG $+5
$SG133949 DB	'too large', 00H
	ORG $+6
$SG133951 DB	'outofmem', 00H
	ORG $+7
$SG133956 DB	'stbi__tga_load', 00H
	ORG $+1
$SG133957 DB	'W:\cpp\void\e\rx\stb_image.h', 00H
	ORG $+3
$SG133958 DB	'bad palette', 00H
	ORG $+4
$SG133960 DB	'stbi__tga_load', 00H
	ORG $+1
$SG133961 DB	'W:\cpp\void\e\rx\stb_image.h', 00H
	ORG $+3
$SG133962 DB	'outofmem', 00H
	ORG $+7
$SG133965 DB	'W', 00H, ':', 00H, '\', 00H, 'c', 00H, 'p', 00H, 'p', 00H
	DB	'\', 00H, 'v', 00H, 'o', 00H, 'i', 00H, 'd', 00H, '\', 00H, 'e'
	DB	00H, '\', 00H, 'r', 00H, 'x', 00H, '\', 00H, 's', 00H, 't', 00H
	DB	'b', 00H, '_', 00H, 'i', 00H, 'm', 00H, 'a', 00H, 'g', 00H, 'e'
	DB	00H, '.', 00H, 'h', 00H, 00H, 00H
	ORG $+6
$SG133966 DB	't', 00H, 'g', 00H, 'a', 00H, '_', 00H, 'c', 00H, 'o', 00H
	DB	'm', 00H, 'p', 00H, ' ', 00H, '=', 00H, '=', 00H, ' ', 00H, 'S'
	DB	00H, 'T', 00H, 'B', 00H, 'I', 00H, '_', 00H, 'r', 00H, 'g', 00H
	DB	'b', 00H, 00H, 00H
	ORG $+6
$SG133968 DB	'stbi__tga_load', 00H
	ORG $+1
$SG133969 DB	'W:\cpp\void\e\rx\stb_image.h', 00H
	ORG $+3
$SG133970 DB	'stbi__tga_load', 00H
	ORG $+1
$SG133971 DB	'W:\cpp\void\e\rx\stb_image.h', 00H
	ORG $+3
$SG133972 DB	'bad palette', 00H
	ORG $+4
$SG133984 DB	'W', 00H, ':', 00H, '\', 00H, 'c', 00H, 'p', 00H, 'p', 00H
	DB	'\', 00H, 'v', 00H, 'o', 00H, 'i', 00H, 'd', 00H, '\', 00H, 'e'
	DB	00H, '\', 00H, 'r', 00H, 'x', 00H, '\', 00H, 's', 00H, 't', 00H
	DB	'b', 00H, '_', 00H, 'i', 00H, 'm', 00H, 'a', 00H, 'g', 00H, 'e'
	DB	00H, '.', 00H, 'h', 00H, 00H, 00H
	ORG $+6
$SG133985 DB	't', 00H, 'g', 00H, 'a', 00H, '_', 00H, 'c', 00H, 'o', 00H
	DB	'm', 00H, 'p', 00H, ' ', 00H, '=', 00H, '=', 00H, ' ', 00H, 'S'
	DB	00H, 'T', 00H, 'B', 00H, 'I', 00H, '_', 00H, 'r', 00H, 'g', 00H
	DB	'b', 00H, 00H, 00H
	ORG $+6
$SG133988 DB	'stbi__tga_load', 00H
	ORG $+1
$SG133989 DB	'W:\cpp\void\e\rx\stb_image.h', 00H
	ORG $+3
$SG134152 DB	'not PSD', 00H
$SG134154 DB	'wrong version', 00H
	ORG $+2
$SG134157 DB	'wrong channel count', 00H
	ORG $+4
$SG134159 DB	'too large', 00H
	ORG $+6
$SG134161 DB	'too large', 00H
	ORG $+6
$SG134163 DB	'unsupported bit depth', 00H
	ORG $+2
$SG134165 DB	'wrong color format', 00H
	ORG $+5
$SG134167 DB	'bad compression', 00H
$SG134169 DB	'too large', 00H
	ORG $+6
$SG134173 DB	'outofmem', 00H
	ORG $+7
$SG134179 DB	'stbi__psd_load', 00H
	ORG $+1
$SG134180 DB	'W:\cpp\void\e\rx\stb_image.h', 00H
	ORG $+3
$SG134181 DB	'corrupt', 00H
$SG134221 DB	'S', 080H, 0f6H, '4', 00H
	ORG $+3
$SG134223 DB	'PICT', 00H
	ORG $+3
$SG134248 DB	'bad file', 00H
	ORG $+7
$SG134354 DB	'bad format', 00H
	ORG $+5
$SG134356 DB	'bad file', 00H
	ORG $+7
$SG134358 DB	'bad format', 00H
	ORG $+5
$SG134360 DB	'bad format', 00H
	ORG $+5
$SG134365 DB	'bad file', 00H
	ORG $+7
$SG134370 DB	'bad file', 00H
	ORG $+7
$SG134376 DB	'bad file', 00H
	ORG $+7
$SG134379 DB	'bad file', 00H
	ORG $+7
$SG134426 DB	'too large', 00H
	ORG $+6
$SG134428 DB	'too large', 00H
	ORG $+6
$SG134430 DB	'bad file', 00H
	ORG $+7
$SG134432 DB	'too large', 00H
	ORG $+6
$SG134434 DB	'outofmem', 00H
	ORG $+7
$SG134436 DB	'stbi__pic_load', 00H
	ORG $+1
$SG134437 DB	'W:\cpp\void\e\rx\stb_image.h', 00H
	ORG $+3
$SG134515 DB	'not GIF', 00H
$SG134517 DB	'not GIF', 00H
$SG134519 DB	'not GIF', 00H
$SG134522 DB	'too large', 00H
	ORG $+6
$SG134524 DB	'too large', 00H
	ORG $+6
$SG134542 DB	'outofmem', 00H
	ORG $+7
$SG134544 DB	'stbi__gif_info_raw', 00H
	ORG $+5
$SG134545 DB	'W:\cpp\void\e\rx\stb_image.h', 00H
	ORG $+3
$SG134548 DB	'stbi__gif_info_raw', 00H
	ORG $+5
$SG134549 DB	'W:\cpp\void\e\rx\stb_image.h', 00H
	ORG $+3
$SG134626 DB	'no clear code', 00H
	ORG $+2
$SG134630 DB	'too many codes', 00H
	ORG $+1
$SG134632 DB	'illegal code in raster', 00H
	ORG $+1
$SG134634 DB	'illegal code in raster', 00H
	ORG $+1
$SG134707 DB	'too large', 00H
	ORG $+6
$SG134710 DB	'outofmem', 00H
	ORG $+7
$SG134721 DB	'bad Image Descriptor', 00H
	ORG $+3
$SG134729 DB	'missing color table', 00H
	ORG $+4
$SG134743 DB	'unknown code', 00H
	ORG $+3
$SG134756 DB	'stbi__load_gif_main_outofmem', 00H
	ORG $+3
$SG134757 DB	'W:\cpp\void\e\rx\stb_image.h', 00H
	ORG $+3
$SG134758 DB	'stbi__load_gif_main_outofmem', 00H
	ORG $+3
$SG134759 DB	'W:\cpp\void\e\rx\stb_image.h', 00H
	ORG $+3
$SG134760 DB	'stbi__load_gif_main_outofmem', 00H
	ORG $+3
$SG134761 DB	'W:\cpp\void\e\rx\stb_image.h', 00H
	ORG $+3
$SG134763 DB	'stbi__load_gif_main_outofmem', 00H
	ORG $+3
$SG134764 DB	'W:\cpp\void\e\rx\stb_image.h', 00H
	ORG $+3
$SG134766 DB	'stbi__load_gif_main_outofmem', 00H
	ORG $+3
$SG134767 DB	'W:\cpp\void\e\rx\stb_image.h', 00H
	ORG $+3
$SG134768 DB	'outofmem', 00H
	ORG $+7
$SG134820 DB	'stbi__load_gif_main', 00H
	ORG $+4
$SG134821 DB	'W:\cpp\void\e\rx\stb_image.h', 00H
	ORG $+3
$SG134825 DB	'stbi__load_gif_main', 00H
	ORG $+4
$SG134826 DB	'W:\cpp\void\e\rx\stb_image.h', 00H
	ORG $+3
$SG134833 DB	'stbi__load_gif_main', 00H
	ORG $+4
$SG134834 DB	'W:\cpp\void\e\rx\stb_image.h', 00H
	ORG $+3
$SG134835 DB	'stbi__load_gif_main', 00H
	ORG $+4
$SG134836 DB	'W:\cpp\void\e\rx\stb_image.h', 00H
	ORG $+3
$SG134837 DB	'stbi__load_gif_main', 00H
	ORG $+4
$SG134838 DB	'W:\cpp\void\e\rx\stb_image.h', 00H
	ORG $+3
$SG134840 DB	'not GIF', 00H
$SG134863 DB	'stbi__gif_load', 00H
	ORG $+1
$SG134864 DB	'W:\cpp\void\e\rx\stb_image.h', 00H
	ORG $+3
$SG134865 DB	'stbi__gif_load', 00H
	ORG $+1
$SG134866 DB	'W:\cpp\void\e\rx\stb_image.h', 00H
	ORG $+3
$SG134867 DB	'stbi__gif_load', 00H
	ORG $+1
$SG134868 DB	'W:\cpp\void\e\rx\stb_image.h', 00H
	ORG $+3
$SG134893 DB	'#?RADIANCE', 0aH, 00H
	ORG $+4
$SG134895 DB	'#?RGBE', 0aH, 00H
$SG135059 DB	'#?RADIANCE', 00H
	ORG $+5
$SG135061 DB	'not HDR', 00H
$SG135064 DB	'FORMAT=32-bit_rle_rgbe', 00H
	ORG $+1
$SG135066 DB	'unsupported format', 00H
	ORG $+5
$SG135069 DB	'unsupported data layout', 00H
$SG135072 DB	'unsupported data layout', 00H
$SG135074 DB	'too large', 00H
	ORG $+6
$SG135076 DB	'too large', 00H
	ORG $+6
$SG135080 DB	'too large', 00H
	ORG $+6
$SG135082 DB	'outofmem', 00H
	ORG $+7
$SG135088 DB	'stbi__hdr_load', 00H
	ORG $+1
$SG135089 DB	'W:\cpp\void\e\rx\stb_image.h', 00H
	ORG $+3
$SG135091 DB	'stbi__hdr_load', 00H
	ORG $+1
$SG135092 DB	'W:\cpp\void\e\rx\stb_image.h', 00H
	ORG $+3
$SG135093 DB	'stbi__hdr_load', 00H
	ORG $+1
$SG135094 DB	'W:\cpp\void\e\rx\stb_image.h', 00H
	ORG $+3
$SG135095 DB	'invalid decoded scanline length', 00H
$SG135098 DB	'stbi__hdr_load', 00H
	ORG $+1
$SG135099 DB	'W:\cpp\void\e\rx\stb_image.h', 00H
	ORG $+3
$SG135100 DB	'outofmem', 00H
	ORG $+7
$SG135104 DB	'stbi__hdr_load', 00H
	ORG $+1
$SG135105 DB	'W:\cpp\void\e\rx\stb_image.h', 00H
	ORG $+3
$SG135106 DB	'stbi__hdr_load', 00H
	ORG $+1
$SG135107 DB	'W:\cpp\void\e\rx\stb_image.h', 00H
	ORG $+3
$SG135108 DB	'corrupt', 00H
$SG135110 DB	'stbi__hdr_load', 00H
	ORG $+1
$SG135111 DB	'W:\cpp\void\e\rx\stb_image.h', 00H
	ORG $+3
$SG135112 DB	'stbi__hdr_load', 00H
	ORG $+1
$SG135113 DB	'W:\cpp\void\e\rx\stb_image.h', 00H
	ORG $+3
$SG135114 DB	'corrupt', 00H
$SG135116 DB	'stbi__hdr_load', 00H
	ORG $+1
$SG135117 DB	'W:\cpp\void\e\rx\stb_image.h', 00H
	ORG $+3
$SG135145 DB	'FORMAT=32-bit_rle_rgbe', 00H
	ORG $+1
$SG135224 DB	'S', 080H, 0f6H, '4', 00H
	ORG $+3
$SG135277 DB	'too large', 00H
	ORG $+6
$SG135279 DB	'too large', 00H
	ORG $+6
$SG135282 DB	'too large', 00H
	ORG $+6
$SG135284 DB	'outofmem', 00H
	ORG $+7
$SG135346 DB	'max value > 65535', 00H
	ORG $+6
$SG135375 DB	'unknown image type', 00H
	ORG $+5
$SG135396 DB	'can''t fopen', 00H
	ORG $+4
$SG135416 DB	'can''t fopen', 00H
	ORG $+4
$SG135723 DB	'W', 00H, ':', 00H, '\', 00H, 'c', 00H, 'p', 00H, 'p', 00H
	DB	'\', 00H, 'v', 00H, 'o', 00H, 'i', 00H, 'd', 00H, '\', 00H, 'e'
	DB	00H, '\', 00H, 'r', 00H, 'x', 00H, '\', 00H, 's', 00H, 't', 00H
	DB	'b', 00H, '_', 00H, 'i', 00H, 'm', 00H, 'a', 00H, 'g', 00H, 'e'
	DB	00H, '_', 00H, 'w', 00H, 'r', 00H, 'i', 00H, 't', 00H, 'e', 00H
	DB	'.', 00H, 'h', 00H, 00H, 00H
	ORG $+2
$SG135884 DB	'11 4 22 44 44 22 444444', 00H
$SG135885 DB	'11 4 22 44 44 22 444444 4444 4 444 444 444 444', 00H
	ORG $+1
$SG135965 DB	'111 221 2222 11', 00H
$SG135966 DB	'111 221 2222 11', 00H
$SG136037 DB	'W', 00H, ':', 00H, '\', 00H, 'c', 00H, 'p', 00H, 'p', 00H
	DB	'\', 00H, 'v', 00H, 'o', 00H, 'i', 00H, 'd', 00H, '\', 00H, 'e'
	DB	00H, '\', 00H, 'r', 00H, 'x', 00H, '\', 00H, 's', 00H, 't', 00H
	DB	'b', 00H, '_', 00H, 'i', 00H, 'm', 00H, 'a', 00H, 'g', 00H, 'e'
	DB	00H, '_', 00H, 'w', 00H, 'r', 00H, 'i', 00H, 't', 00H, 'e', 00H
	DB	'.', 00H, 'h', 00H, 00H, 00H
	ORG $+2
$SG136038 DB	'l', 00H, 'e', 00H, 'n', 00H, 'g', 00H, 't', 00H, 'h', 00H
	DB	'+', 00H, '1', 00H, '2', 00H, '8', 00H, ' ', 00H, '<', 00H, '='
	DB	00H, ' ', 00H, '2', 00H, '5', 00H, '5', 00H, 00H, 00H
	ORG $+4
$SG136051 DB	'W', 00H, ':', 00H, '\', 00H, 'c', 00H, 'p', 00H, 'p', 00H
	DB	'\', 00H, 'v', 00H, 'o', 00H, 'i', 00H, 'd', 00H, '\', 00H, 'e'
	DB	00H, '\', 00H, 'r', 00H, 'x', 00H, '\', 00H, 's', 00H, 't', 00H
	DB	'b', 00H, '_', 00H, 'i', 00H, 'm', 00H, 'a', 00H, 'g', 00H, 'e'
	DB	00H, '_', 00H, 'w', 00H, 'r', 00H, 'i', 00H, 't', 00H, 'e', 00H
	DB	'.', 00H, 'h', 00H, 00H, 00H
	ORG $+2
$SG136052 DB	'l', 00H, 'e', 00H, 'n', 00H, 'g', 00H, 't', 00H, 'h', 00H
	DB	' ', 00H, '<', 00H, '=', 00H, ' ', 00H, '1', 00H, '2', 00H, '8'
	DB	00H, 00H, 00H
	ORG $+4
$SG136136 DB	'stbi_write_hdr_core', 00H
	ORG $+4
$SG136137 DB	'W:\cpp\void\e\rx\stb_image_write.h', 00H
	ORG $+5
$SG136139 DB	'EXPOSURE=          1.0000000000000', 0aH, 0aH, '-Y %d +X'
	DB	' %d', 0aH, 00H
	ORG $+7
$SG136138 DB	'#?RADIANCE', 0aH, '# Written by stb_image_write.h', 0aH, 'F'
	DB	'ORMAT=32-bit_rle_rgbe', 0aH, 00H
	ORG $+6
$SG136140 DB	'stbi_write_hdr_core', 00H
	ORG $+4
$SG136141 DB	'W:\cpp\void\e\rx\stb_image_write.h', 00H
	ORG $+5
$SG136195 DB	'stbiw__sbgrowf', 00H
	ORG $+1
$SG136196 DB	'W:\cpp\void\e\rx\stb_image_write.h', 00H
	ORG $+5
$SG136197 DB	'W', 00H, ':', 00H, '\', 00H, 'c', 00H, 'p', 00H, 'p', 00H
	DB	'\', 00H, 'v', 00H, 'o', 00H, 'i', 00H, 'd', 00H, '\', 00H, 'e'
	DB	00H, '\', 00H, 'r', 00H, 'x', 00H, '\', 00H, 's', 00H, 't', 00H
	DB	'b', 00H, '_', 00H, 'i', 00H, 'm', 00H, 'a', 00H, 'g', 00H, 'e'
	DB	00H, '_', 00H, 'w', 00H, 'r', 00H, 'i', 00H, 't', 00H, 'e', 00H
	DB	'.', 00H, 'h', 00H, 00H, 00H
	ORG $+2
?lengthc@?1??stbi_zlib_compress@@9@9 DW 03H		; `stbi_zlib_compress'::`2'::lengthc
	DW	04H
	DW	05H
	DW	06H
	DW	07H
	DW	08H
	DW	09H
	DW	0aH
	DW	0bH
	DW	0dH
	DW	0fH
	DW	011H
	DW	013H
	DW	017H
	DW	01bH
	DW	01fH
	DW	023H
	DW	02bH
	DW	033H
	DW	03bH
	DW	043H
	DW	053H
	DW	063H
	DW	073H
	DW	083H
	DW	0a3H
	DW	0c3H
	DW	0e3H
	DW	0102H
	DW	0103H
	ORG $+4
?lengtheb@?1??stbi_zlib_compress@@9@9 DB 00H		; `stbi_zlib_compress'::`2'::lengtheb
	DB	00H
	DB	00H
	DB	00H
	DB	00H
	DB	00H
	DB	00H
	DB	00H
	DB	01H
	DB	01H
	DB	01H
	DB	01H
	DB	02H
	DB	02H
	DB	02H
	DB	02H
	DB	03H
	DB	03H
	DB	03H
	DB	03H
	DB	04H
	DB	04H
	DB	04H
	DB	04H
	DB	05H
	DB	05H
	DB	05H
	DB	05H
	DB	00H
	ORG $+3
?distc@?1??stbi_zlib_compress@@9@9 DW 01H		; `stbi_zlib_compress'::`2'::distc
	DW	02H
	DW	03H
	DW	04H
	DW	05H
	DW	07H
	DW	09H
	DW	0dH
	DW	011H
	DW	019H
	DW	021H
	DW	031H
	DW	041H
	DW	061H
	DW	081H
	DW	0c1H
	DW	0101H
	DW	0181H
	DW	0201H
	DW	0301H
	DW	0401H
	DW	0601H
	DW	0801H
	DW	0c01H
	DW	01001H
	DW	01801H
	DW	02001H
	DW	03001H
	DW	04001H
	DW	06001H
	DW	08000H
	ORG $+2
?disteb@?1??stbi_zlib_compress@@9@9 DB 00H		; `stbi_zlib_compress'::`2'::disteb
	DB	00H
	DB	00H
	DB	00H
	DB	01H
	DB	01H
	DB	02H
	DB	02H
	DB	03H
	DB	03H
	DB	04H
	DB	04H
	DB	05H
	DB	05H
	DB	06H
	DB	06H
	DB	07H
	DB	07H
	DB	08H
	DB	08H
	DB	09H
	DB	09H
	DB	0aH
	DB	0aH
	DB	0bH
	DB	0bH
	DB	0cH
	DB	0cH
	DB	0dH
	DB	0dH
	ORG $+2
$SG136444 DB	'stbi_zlib_compress', 00H
	ORG $+5
$SG136445 DB	'W:\cpp\void\e\rx\stb_image_write.h', 00H
	ORG $+5
$SG136457 DB	'd', 00H, ' ', 00H, '<', 00H, '=', 00H, ' ', 00H, '3', 00H
	DB	'2', 00H, '7', 00H, '6', 00H, '7', 00H, ' ', 00H, '&', 00H, '&'
	DB	00H, ' ', 00H, 'b', 00H, 'e', 00H, 's', 00H, 't', 00H, ' ', 00H
	DB	'<', 00H, '=', 00H, ' ', 00H, '2', 00H, '5', 00H, '8', 00H, 00H
	DB	00H
	ORG $+4
$SG136456 DB	'W', 00H, ':', 00H, '\', 00H, 'c', 00H, 'p', 00H, 'p', 00H
	DB	'\', 00H, 'v', 00H, 'o', 00H, 'i', 00H, 'd', 00H, '\', 00H, 'e'
	DB	00H, '\', 00H, 'r', 00H, 'x', 00H, '\', 00H, 's', 00H, 't', 00H
	DB	'b', 00H, '_', 00H, 'i', 00H, 'm', 00H, 'a', 00H, 'g', 00H, 'e'
	DB	00H, '_', 00H, 'w', 00H, 'r', 00H, 'i', 00H, 't', 00H, 'e', 00H
	DB	'.', 00H, 'h', 00H, 00H, 00H
	ORG $+2
$SG136460 DB	'stbi_zlib_compress', 00H
	ORG $+5
$SG136461 DB	'W:\cpp\void\e\rx\stb_image_write.h', 00H
	ORG $+5
$SG136462 DB	'stbi_zlib_compress', 00H
	ORG $+5
$SG136463 DB	'W:\cpp\void\e\rx\stb_image_write.h', 00H
	ORG $+5
?mapping@?1??stbiw__encode_png_line@@9@9 DD 00H		; `stbiw__encode_png_line'::`2'::mapping
	DD	01H
	DD	02H
	DD	03H
	DD	04H
	ORG $+4
?crc_table@?1??stbiw__crc32@@9@9 DD 00H			; `stbiw__crc32'::`2'::crc_table
	DD	077073096H
	DD	0ee0e612cH
	DD	0990951baH
	DD	076dc419H
	DD	0706af48fH
	DD	0e963a535H
	DD	09e6495a3H
	DD	0edb8832H
	DD	079dcb8a4H
	DD	0e0d5e91eH
	DD	097d2d988H
	DD	09b64c2bH
	DD	07eb17cbdH
	DD	0e7b82d07H
	DD	090bf1d91H
	DD	01db71064H
	DD	06ab020f2H
	DD	0f3b97148H
	DD	084be41deH
	DD	01adad47dH
	DD	06ddde4ebH
	DD	0f4d4b551H
	DD	083d385c7H
	DD	0136c9856H
	DD	0646ba8c0H
	DD	0fd62f97aH
	DD	08a65c9ecH
	DD	014015c4fH
	DD	063066cd9H
	DD	0fa0f3d63H
	DD	08d080df5H
	DD	03b6e20c8H
	DD	04c69105eH
	DD	0d56041e4H
	DD	0a2677172H
	DD	03c03e4d1H
	DD	04b04d447H
	DD	0d20d85fdH
	DD	0a50ab56bH
	DD	035b5a8faH
	DD	042b2986cH
	DD	0dbbbc9d6H
	DD	0acbcf940H
	DD	032d86ce3H
	DD	045df5c75H
	DD	0dcd60dcfH
	DD	0abd13d59H
	DD	026d930acH
	DD	051de003aH
	DD	0c8d75180H
	DD	0bfd06116H
	DD	021b4f4b5H
	DD	056b3c423H
	DD	0cfba9599H
	DD	0b8bda50fH
	DD	02802b89eH
	DD	05f058808H
	DD	0c60cd9b2H
	DD	0b10be924H
	DD	02f6f7c87H
	DD	058684c11H
	DD	0c1611dabH
	DD	0b6662d3dH
	DD	076dc4190H
	DD	01db7106H
	DD	098d220bcH
	DD	0efd5102aH
	DD	071b18589H
	DD	06b6b51fH
	DD	09fbfe4a5H
	DD	0e8b8d433H
	DD	07807c9a2H
	DD	0f00f934H
	DD	09609a88eH
	DD	0e10e9818H
	DD	07f6a0dbbH
	DD	086d3d2dH
	DD	091646c97H
	DD	0e6635c01H
	DD	06b6b51f4H
	DD	01c6c6162H
	DD	0856530d8H
	DD	0f262004eH
	DD	06c0695edH
	DD	01b01a57bH
	DD	08208f4c1H
	DD	0f50fc457H
	DD	065b0d9c6H
	DD	012b7e950H
	DD	08bbeb8eaH
	DD	0fcb9887cH
	DD	062dd1ddfH
	DD	015da2d49H
	DD	08cd37cf3H
	DD	0fbd44c65H
	DD	04db26158H
	DD	03ab551ceH
	DD	0a3bc0074H
	DD	0d4bb30e2H
	DD	04adfa541H
	DD	03dd895d7H
	DD	0a4d1c46dH
	DD	0d3d6f4fbH
	DD	04369e96aH
	DD	0346ed9fcH
	DD	0ad678846H
	DD	0da60b8d0H
	DD	044042d73H
	DD	033031de5H
	DD	0aa0a4c5fH
	DD	0dd0d7cc9H
	DD	05005713cH
	DD	0270241aaH
	DD	0be0b1010H
	DD	0c90c2086H
	DD	05768b525H
	DD	0206f85b3H
	DD	0b966d409H
	DD	0ce61e49fH
	DD	05edef90eH
	DD	029d9c998H
	DD	0b0d09822H
	DD	0c7d7a8b4H
	DD	059b33d17H
	DD	02eb40d81H
	DD	0b7bd5c3bH
	DD	0c0ba6cadH
	DD	0edb88320H
	DD	09abfb3b6H
	DD	03b6e20cH
	DD	074b1d29aH
	DD	0ead54739H
	DD	09dd277afH
	DD	04db2615H
	DD	073dc1683H
	DD	0e3630b12H
	DD	094643b84H
	DD	0d6d6a3eH
	DD	07a6a5aa8H
	DD	0e40ecf0bH
	DD	09309ff9dH
	DD	0a00ae27H
	DD	07d079eb1H
	DD	0f00f9344H
	DD	08708a3d2H
	DD	01e01f268H
	DD	06906c2feH
	DD	0f762575dH
	DD	0806567cbH
	DD	0196c3671H
	DD	06e6b06e7H
	DD	0fed41b76H
	DD	089d32be0H
	DD	010da7a5aH
	DD	067dd4accH
	DD	0f9b9df6fH
	DD	08ebeeff9H
	DD	017b7be43H
	DD	060b08ed5H
	DD	0d6d6a3e8H
	DD	0a1d1937eH
	DD	038d8c2c4H
	DD	04fdff252H
	DD	0d1bb67f1H
	DD	0a6bc5767H
	DD	03fb506ddH
	DD	048b2364bH
	DD	0d80d2bdaH
	DD	0af0a1b4cH
	DD	036034af6H
	DD	041047a60H
	DD	0df60efc3H
	DD	0a867df55H
	DD	0316e8eefH
	DD	04669be79H
	DD	0cb61b38cH
	DD	0bc66831aH
	DD	0256fd2a0H
	DD	05268e236H
	DD	0cc0c7795H
	DD	0bb0b4703H
	DD	0220216b9H
	DD	05505262fH
	DD	0c5ba3bbeH
	DD	0b2bd0b28H
	DD	02bb45a92H
	DD	05cb36a04H
	DD	0c2d7ffa7H
	DD	0b5d0cf31H
	DD	02cd99e8bH
	DD	05bdeae1dH
	DD	09b64c2b0H
	DD	0ec63f226H
	DD	0756aa39cH
	DD	026d930aH
	DD	09c0906a9H
	DD	0eb0e363fH
	DD	072076785H
	DD	05005713H
	DD	095bf4a82H
	DD	0e2b87a14H
	DD	07bb12baeH
	DD	0cb61b38H
	DD	092d28e9bH
	DD	0e5d5be0dH
	DD	07cdcefb7H
	DD	0bdbdf21H
	DD	086d3d2d4H
	DD	0f1d4e242H
	DD	068ddb3f8H
	DD	01fda836eH
	DD	081be16cdH
	DD	0f6b9265bH
	DD	06fb077e1H
	DD	018b74777H
	DD	088085ae6H
	DD	0ff0f6a70H
	DD	066063bcaH
	DD	011010b5cH
	DD	08f659effH
	DD	0f862ae69H
	DD	0616bffd3H
	DD	0166ccf45H
	DD	0a00ae278H
	DD	0d70dd2eeH
	DD	04e048354H
	DD	03903b3c2H
	DD	0a7672661H
	DD	0d06016f7H
	DD	04969474dH
	DD	03e6e77dbH
	DD	0aed16a4aH
	DD	0d9d65adcH
	DD	040df0b66H
	DD	037d83bf0H
	DD	0a9bcae53H
	DD	0debb9ec5H
	DD	047b2cf7fH
	DD	030b5ffe9H
	DD	0bdbdf21cH
	DD	0cabac28aH
	DD	053b39330H
	DD	024b4a3a6H
	DD	0bad03605H
	DD	0cdd70693H
	DD	054de5729H
	DD	023d967bfH
	DD	0b3667a2eH
	DD	0c4614ab8H
	DD	05d681b02H
	DD	02a6f2b94H
	DD	0b40bbe37H
	DD	0c30c8ea1H
	DD	05a05df1bH
	DD	02d02ef8dH
?firstmap@?1??stbiw__encode_png_line@@9@9 DD 00H	; `stbiw__encode_png_line'::`2'::firstmap
	DD	01H
	DD	00H
	DD	05H
	DD	06H
	ORG $+4
$SG136656 DB	'stbi_write_png_to_mem', 00H
	ORG $+2
$SG136657 DB	'W:\cpp\void\e\rx\stb_image_write.h', 00H
	ORG $+5
$SG136659 DB	'stbi_write_png_to_mem', 00H
	ORG $+2
$SG136660 DB	'W:\cpp\void\e\rx\stb_image_write.h', 00H
	ORG $+5
$SG136662 DB	'stbi_write_png_to_mem', 00H
	ORG $+2
$SG136663 DB	'W:\cpp\void\e\rx\stb_image_write.h', 00H
	ORG $+5
$SG136668 DB	'stbi_write_png_to_mem', 00H
	ORG $+2
$SG136669 DB	'W:\cpp\void\e\rx\stb_image_write.h', 00H
	ORG $+5
$SG136670 DB	'stbi_write_png_to_mem', 00H
	ORG $+2
$SG136671 DB	'W:\cpp\void\e\rx\stb_image_write.h', 00H
	ORG $+5
$SG136673 DB	'stbi_write_png_to_mem', 00H
	ORG $+2
$SG136674 DB	'W:\cpp\void\e\rx\stb_image_write.h', 00H
	ORG $+1
$SG136676 DB	'IHDR', 00H
	ORG $+3
$SG136677 DB	'IHDR', 00H
	ORG $+3
$SG136678 DB	'IHDR', 00H
	ORG $+3
$SG136679 DB	'IHDR', 00H
	ORG $+3
$SG136680 DB	'IDAT', 00H
	ORG $+3
$SG136681 DB	'IDAT', 00H
	ORG $+3
$SG136682 DB	'IDAT', 00H
	ORG $+3
$SG136683 DB	'IDAT', 00H
	ORG $+7
$SG136684 DB	'stbi_write_png_to_mem', 00H
	ORG $+2
$SG136685 DB	'W:\cpp\void\e\rx\stb_image_write.h', 00H
	ORG $+1
$SG136686 DB	'IEND', 00H
	ORG $+3
$SG136687 DB	'IEND', 00H
	ORG $+3
$SG136688 DB	'IEND', 00H
	ORG $+3
$SG136689 DB	'IEND', 00H
	ORG $+7
$SG136691 DB	'o', 00H, ' ', 00H, '=', 00H, '=', 00H, ' ', 00H, 'o', 00H
	DB	'u', 00H, 't', 00H, ' ', 00H, '+', 00H, ' ', 00H, '*', 00H, 'o'
	DB	00H, 'u', 00H, 't', 00H, '_', 00H, 'l', 00H, 'e', 00H, 'n', 00H
	DB	00H, 00H
$SG136690 DB	'W', 00H, ':', 00H, '\', 00H, 'c', 00H, 'p', 00H, 'p', 00H
	DB	'\', 00H, 'v', 00H, 'o', 00H, 'i', 00H, 'd', 00H, '\', 00H, 'e'
	DB	00H, '\', 00H, 'r', 00H, 'x', 00H, '\', 00H, 's', 00H, 't', 00H
	DB	'b', 00H, '_', 00H, 'i', 00H, 'm', 00H, 'a', 00H, 'g', 00H, 'e'
	DB	00H, '_', 00H, 'w', 00H, 'r', 00H, 'i', 00H, 't', 00H, 'e', 00H
	DB	'.', 00H, 'h', 00H, 00H, 00H
	ORG $+2
$SG136713 DB	'stbi_write_png', 00H
	ORG $+1
$SG136714 DB	'W:\cpp\void\e\rx\stb_image_write.h', 00H
	ORG $+5
$SG136715 DB	'stbi_write_png', 00H
	ORG $+1
$SG136716 DB	'W:\cpp\void\e\rx\stb_image_write.h', 00H
	ORG $+5
$SG136737 DB	'stbi_write_png_to_func', 00H
	ORG $+1
$SG136738 DB	'W:\cpp\void\e\rx\stb_image_write.h', 00H
	ORG $+5
$SG138064 DB	'rxarticle_create', 00H
	ORG $+7
$SG138065 DB	'W:\cpp\void\e\rx\rxobject.cc', 00H
	ORG $+3
$SG138067 DB	'assertion triggered', 00H
	ORG $+4
$SG138069 DB	'rxarticle_create', 00H
	ORG $+7
$SG138070 DB	'W:\cpp\void\e\rx\rxobject.cc', 00H
	ORG $+3
$SG138090 DB	'rxlinker_register_terminal', 00H
	ORG $+5
$SG138091 DB	'W:\cpp\void\e\rx\rxobject.cc', 00H
	ORG $+3
$SG138093 DB	'assertion triggered', 00H
	ORG $+4
$SG138095 DB	'rxlinker_register_terminal', 00H
	ORG $+5
$SG138096 DB	'W:\cpp\void\e\rx\rxobject.cc', 00H
	ORG $+3
$SG138104 DB	'rxlinker_onlyquery_terminal', 00H
	ORG $+4
$SG138105 DB	'W:\cpp\void\e\rx\rxobject.cc', 00H
	ORG $+3
$SG138142 DB	'assertion triggered', 00H
	ORG $+4
$SG138144 DB	'rxlinker_resolve_terminal', 00H
	ORG $+6
$SG138145 DB	'W:\cpp\void\e\rx\rxobject.cc', 00H
	ORG $+3
$SG138147 DB	'assertion triggered', 00H
	ORG $+4
$SG138149 DB	'rxlinker_resolve_terminal', 00H
	ORG $+6
$SG138150 DB	'W:\cpp\void\e\rx\rxobject.cc', 00H
	ORG $+3
$SG138158 DB	'''%s'': file contents re/loaded', 00H
	ORG $+2
$SG138160 DB	'rxlinker_resolve_terminal', 00H
	ORG $+6
$SG138161 DB	'W:\cpp\void\e\rx\rxobject.cc', 00H
	ORG $+3
$SG138163 DB	'rxlinker_resolve_terminal', 00H
	ORG $+6
$SG138164 DB	'W:\cpp\void\e\rx\rxobject.cc', 00H
	ORG $+3
$SG138165 DB	'''%s'': file contents could not be read', 00H
	ORG $+2
$SG138167 DB	'rxlinker_resolve_terminal', 00H
	ORG $+6
$SG138168 DB	'W:\cpp\void\e\rx\rxobject.cc', 00H
	ORG $+3
$SG138262 DB	'''%s'': compiled shader', 00H
	ORG $+2
$SG138264 DB	'rxcompile_shader_bytecode', 00H
	ORG $+6
$SG138265 DB	'W:\cpp\void\e\rx\rx.c', 00H
	ORG $+2
$SG138266 DB	'<!4%s!>', 0dH, 0aH, 00H
	ORG $+6
$SG138267 DB	'''%s'': there were compilation errors', 00H
	ORG $+4
$SG138269 DB	'rxcompile_shader_bytecode', 00H
	ORG $+6
$SG138270 DB	'W:\cpp\void\e\rx\rx.c', 00H
	ORG $+2
$SG138320 DB	'create_vertex_shader::error', 00H
	ORG $+4
$SG138322 DB	'rxcreate_shader', 00H
$SG138323 DB	'W:\cpp\void\e\rx\rx.c', 00H
	ORG $+2
$SG138326 DB	'create_pixel_shader::error', 00H
	ORG $+5
$SG138328 DB	'rxcreate_shader', 00H
$SG138329 DB	'W:\cpp\void\e\rx\rx.c', 00H
	ORG $+2
$SG138331 DB	'extract_input_signature::error', 00H
	ORG $+1
$SG138333 DB	'rxcreate_shader', 00H
$SG138334 DB	'W:\cpp\void\e\rx\rx.c', 00H
	ORG $+2
$SG138336 DB	'reflection_interface::error', 00H
	ORG $+4
$SG138338 DB	'rxcreate_shader', 00H
$SG138339 DB	'W:\cpp\void\e\rx\rx.c', 00H
	ORG $+2
$SG138348 DB	'not implemented', 00H
$SG138349 DB	'assertion triggered', 00H
	ORG $+4
$SG138351 DB	'rxcreate_shader', 00H
$SG138352 DB	'W:\cpp\void\e\rx\rx.c', 00H
	ORG $+2
$SG138354 DB	'not implemented', 00H
$SG138355 DB	'assertion triggered', 00H
	ORG $+4
$SG138357 DB	'rxcreate_shader', 00H
$SG138358 DB	'W:\cpp\void\e\rx\rx.c', 00H
	ORG $+2
$SG138360 DB	'create_input_layout::error', 00H
	ORG $+5
$SG138362 DB	'rxcreate_shader', 00H
$SG138363 DB	'W:\cpp\void\e\rx\rx.c', 00H
	ORG $+2
$SG138393 DB	'assertion triggered', 00H
	ORG $+4
$SG138395 DB	'rxload_vertex_shader', 00H
	ORG $+3
$SG138396 DB	'W:\cpp\void\e\rx\rx.c', 00H
	ORG $+2
$SG138398 DB	'assertion triggered', 00H
	ORG $+4
$SG138400 DB	'rxload_vertex_shader', 00H
	ORG $+3
$SG138401 DB	'W:\cpp\void\e\rx\rx.c', 00H
	ORG $+2
$SG138403 DB	'assertion triggered', 00H
	ORG $+4
$SG138405 DB	'rxload_vertex_shader', 00H
	ORG $+3
$SG138406 DB	'W:\cpp\void\e\rx\rx.c', 00H
	ORG $+2
$SG138409 DB	'assertion triggered', 00H
	ORG $+4
$SG138411 DB	'rxload_vertex_shader', 00H
	ORG $+3
$SG138412 DB	'W:\cpp\void\e\rx\rx.c', 00H
	ORG $+2
$SG138414 DB	'assertion triggered', 00H
	ORG $+4
$SG138416 DB	'rxload_vertex_shader', 00H
	ORG $+3
$SG138417 DB	'W:\cpp\void\e\rx\rx.c', 00H
	ORG $+2
$SG138448 DB	'assertion triggered', 00H
	ORG $+4
$SG138450 DB	'rxload_pixel_shader', 00H
	ORG $+4
$SG138451 DB	'W:\cpp\void\e\rx\rx.c', 00H
	ORG $+2
$SG138453 DB	'assertion triggered', 00H
	ORG $+4
$SG138455 DB	'rxload_pixel_shader', 00H
	ORG $+4
$SG138456 DB	'W:\cpp\void\e\rx\rx.c', 00H
	ORG $+2
$SG138458 DB	'assertion triggered', 00H
	ORG $+4
$SG138460 DB	'rxload_pixel_shader', 00H
	ORG $+4
$SG138461 DB	'W:\cpp\void\e\rx\rx.c', 00H
	ORG $+2
$SG138464 DB	'assertion triggered', 00H
	ORG $+4
$SG138466 DB	'rxload_pixel_shader', 00H
	ORG $+4
$SG138467 DB	'W:\cpp\void\e\rx\rx.c', 00H
	ORG $+2
$SG138469 DB	'assertion triggered', 00H
	ORG $+4
$SG138471 DB	'rxload_pixel_shader', 00H
	ORG $+4
$SG138472 DB	'W:\cpp\void\e\rx\rx.c', 00H
	ORG $+2
$SG138494 DB	'rxshader_apply', 00H
	ORG $+1
$SG138495 DB	'W:\cpp\void\e\rx\rx.shader.cc', 00H
	ORG $+2
$SG138497 DB	'assertion triggered', 00H
	ORG $+4
$SG138499 DB	'rxshader_apply', 00H
	ORG $+1
$SG138500 DB	'W:\cpp\void\e\rx\rx.shader.cc', 00H
	ORG $+2
$SG138537 DB	'assertion triggered', 00H
	ORG $+4
$SG138539 DB	'rxbuffer_borrow', 00H
$SG138540 DB	'W:\cpp\void\e\rx\rx.buffer.cc', 00H
	ORG $+2
$SG138542 DB	'assertion triggered', 00H
	ORG $+4
$SG138544 DB	'rxbuffer_borrow', 00H
$SG138545 DB	'W:\cpp\void\e\rx\rx.buffer.cc', 00H
	ORG $+2
$SG138561 DB	'assertion triggered', 00H
	ORG $+4
$SG138563 DB	'rxuniform_buffer_bind_ex', 00H
	ORG $+7
$SG138564 DB	'W:\cpp\void\e\rx\rx.buffer.cc', 00H
	ORG $+2
$SG138677 DB	'''%i'': command limit reached', 00H
	ORG $+4
$SG138679 DB	'rxcomadd', 00H
	ORG $+7
$SG138680 DB	'W:\cpp\void\e\rx\rx.command.cc', 00H
	ORG $+1
$SG138687 DB	'ztest::on', 00H
	ORG $+6
$SG138688 DB	'ztest::off', 00H
	ORG $+5
$SG138691 DB	'mode::3d', 00H
	ORG $+7
$SG138694 DB	'mode::2d', 00H
	ORG $+7
$SG138713 DB	'assertion triggered', 00H
	ORG $+4
$SG138716 DB	'W:\cpp\void\e\rx\rx.command.cc', 00H
	ORG $+1
$SG138718 DB	'assertion triggered', 00H
	ORG $+4
$SG138721 DB	'W:\cpp\void\e\rx\rx.command.cc', 00H
	ORG $+1
$SG138785 DB	'assertion triggered', 00H
	ORG $+4
$SG138787 DB	'rxcomexc', 00H
	ORG $+7
$SG138788 DB	'W:\cpp\void\e\rx\rx.command.cc', 00H
	ORG $+1
$SG138792 DB	'assertion triggered', 00H
	ORG $+4
$SG138794 DB	'rxcomexc', 00H
	ORG $+7
$SG138795 DB	'W:\cpp\void\e\rx\rx.command.cc', 00H
	ORG $+1
$SG138797 DB	'assertion triggered', 00H
	ORG $+4
$SG138799 DB	'rxcomexc', 00H
	ORG $+7
$SG138800 DB	'W:\cpp\void\e\rx\rx.command.cc', 00H
	ORG $+1
$SG138803 DB	'assertion triggered', 00H
	ORG $+4
$SG138805 DB	'rxcomexc', 00H
	ORG $+7
$SG138806 DB	'W:\cpp\void\e\rx\rx.command.cc', 00H
	ORG $+1
$SG138850 DB	'assertion triggered', 00H
	ORG $+4
$SG138852 DB	'rxvertex_mode_end', 00H
	ORG $+6
$SG138853 DB	'W:\cpp\void\e\rx\rx.c', 00H
	ORG $+2
$SG138863 DB	'assertion triggered', 00H
	ORG $+4
$SG138865 DB	'rxvertex_mode', 00H
	ORG $+2
$SG138866 DB	'W:\cpp\void\e\rx\rx.c', 00H
	ORG $+2
$SG138879 DB	'assertion triggered', 00H
	ORG $+4
$SG138881 DB	'rxsubmit_index', 00H
	ORG $+1
$SG138882 DB	'W:\cpp\void\e\rx\rx.c', 00H
	ORG $+2
$SG138884 DB	'assertion triggered', 00H
	ORG $+4
$SG138886 DB	'rxsubmit_index', 00H
	ORG $+1
$SG138887 DB	'W:\cpp\void\e\rx\rx.c', 00H
	ORG $+2
$SG138940 DB	'assertion triggered', 00H
	ORG $+4
$SG138942 DB	'rxsubmit_vertex_ex', 00H
	ORG $+5
$SG138943 DB	'W:\cpp\void\e\rx\rx.c', 00H
	ORG $+2
$SG138945 DB	'assertion triggered', 00H
	ORG $+4
$SG138947 DB	'rxsubmit_vertex_ex', 00H
	ORG $+5
$SG138948 DB	'W:\cpp\void\e\rx\rx.c', 00H
	ORG $+2
$SG139194 DB	'assertion triggered', 00H
	ORG $+4
$SG139196 DB	'rxdraw_text_ex', 00H
	ORG $+1
$SG139197 DB	'W:\cpp\void\e\rx\rx.c', 00H
	ORG $+2
$SG139288 DB	'invalid size x %i', 00H
	ORG $+6
$SG139290 DB	'rxtexture_create_untyped', 00H
	ORG $+7
$SG139291 DB	'W:\cpp\void\e\rx\rx.texture.cc', 00H
	ORG $+1
$SG139292 DB	'assertion triggered', 00H
	ORG $+4
$SG139294 DB	'rxtexture_create_untyped', 00H
	ORG $+7
$SG139295 DB	'W:\cpp\void\e\rx\rx.texture.cc', 00H
	ORG $+1
$SG139298 DB	'invalid size y %i', 00H
	ORG $+6
$SG139300 DB	'rxtexture_create_untyped', 00H
	ORG $+7
$SG139301 DB	'W:\cpp\void\e\rx\rx.texture.cc', 00H
	ORG $+1
$SG139302 DB	'assertion triggered', 00H
	ORG $+4
$SG139304 DB	'rxtexture_create_untyped', 00H
	ORG $+7
$SG139305 DB	'W:\cpp\void\e\rx\rx.texture.cc', 00H
	ORG $+1
$SG139347 DB	'assertion triggered', 00H
	ORG $+4
$SG139349 DB	'rxtexture_borrow', 00H
	ORG $+7
$SG139350 DB	'W:\cpp\void\e\rx\rx.texture.cc', 00H
	ORG $+1
$SG139352 DB	'assertion triggered', 00H
	ORG $+4
$SG139354 DB	'rxtexture_borrow', 00H
	ORG $+7
$SG139355 DB	'W:\cpp\void\e\rx\rx.texture.cc', 00H
	ORG $+1
$SG139370 DB	'rxtexture_apply', 00H
$SG139371 DB	'W:\cpp\void\e\rx\rx.texture.cc', 00H
	ORG $+1
$SG139373 DB	'assertion triggered', 00H
	ORG $+4
$SG139375 DB	'rxtexture_apply', 00H
$SG139376 DB	'W:\cpp\void\e\rx\rx.texture.cc', 00H
	ORG $+1
$SG139428 DB	'rxrender_target_apply', 00H
	ORG $+2
$SG139429 DB	'W:\cpp\void\e\rx\rx.c', 00H
	ORG $+2
$SG139431 DB	'assertion triggered', 00H
	ORG $+4
$SG139433 DB	'rxrender_target_apply', 00H
	ORG $+2
$SG139434 DB	'W:\cpp\void\e\rx\rx.c', 00H
	ORG $+2
$SG139439 DB	'assertion triggered', 00H
	ORG $+4
$SG139441 DB	'rxrender_target_apply', 00H
	ORG $+2
$SG139442 DB	'W:\cpp\void\e\rx\rx.c', 00H
	ORG $+2
$SG139445 DB	'assertion triggered', 00H
	ORG $+4
$SG139447 DB	'rxrender_target_apply', 00H
	ORG $+2
$SG139448 DB	'W:\cpp\void\e\rx\rx.c', 00H
	ORG $+2
$SG139645 DB	'W:\cpp\void\e\rx\rx.c', 00H
	ORG $+2
$SG139647 DB	'assertion triggered', 00H
	ORG $+4
$SG139650 DB	'W:\cpp\void\e\rx\rx.c', 00H
	ORG $+2
$SG139741 DB	'user32.dll', 00H
	ORG $+5
$SG139742 DB	'SetProcessDPIAwarenessContext', 00H
	ORG $+2
$SG139743 DB	'SetProcessDPIAware', 00H
	ORG $+5
$SG139747 DB	'light.hlsl', 00H
	ORG $+5
$SG139749 DB	'light.hlsl', 00H
	ORG $+5
$SG139752 DB	'assertion triggered', 00H
	ORG $+4
$SG139755 DB	'W:\cpp\void\e\rx\rx.c', 00H
	ORG $+2
$SG140718 DB	'assertion triggered', 00H
	ORG $+4
$SG140720 DB	'rect_by_xyxy', 00H
	ORG $+3
$SG140721 DB	'W:\cpp\void\e\rect.cc', 00H
	ORG $+2
$SG140723 DB	'assertion triggered', 00H
	ORG $+4
$SG140725 DB	'rect_by_xyxy', 00H
	ORG $+3
$SG140726 DB	'W:\cpp\void\e\rect.cc', 00H
	ORG $+2
$SG141203 DB	'copy_string_ex', 00H
	ORG $+1
$SG141204 DB	'e.cc', 00H
	ORG $+3
$SG141217 DB	'All', 00H, '*.*', 00H, 'Text', 00H, '*.TXT', 00H, 00H
	ORG $+4
$SG141233 DB	'T', 00H, 'e', 00H, 'r', 00H, 'r', 00H, 'a', 00H, 00H, 00H
	ORG $+4
$SG141234 DB	'light.hlsl', 00H
_DATA	ENDS
voltbl	SEGMENT
_volmd	DD	0ffffffffH
	DDSymXIndex: 	FLAT:main
	DD	01cH
	DD	020dH
_volmd	DD	0ffffffffH
	DDSymXIndex: 	FLAT:fdlg
	DD	011H
	DD	0c2H
_volmd	DD	0ffffffffH
	DDSymXIndex: 	FLAT:ewdg
	DD	01dH
	DD	069bH
_volmd	DD	0ffffffffH
	DDSymXIndex: 	FLAT:emovcury
	DD	01cH
	DD	011dH
_volmd	DD	0ffffffffH
	DDSymXIndex: 	FLAT:emovcurx
	DD	01cH
	DD	0141H
_volmd	DD	0ffffffffH
	DDSymXIndex: 	FLAT:slider_widget
	DD	029H
	DD	032bH
_volmd	DD	0ffffffffH
	DDSymXIndex: 	FLAT:list_item_widget
	DD	022H
	DD	0247H
_volmd	DD	0ffffffffH
	DDSymXIndex: 	FLAT:dropdown_widget
	DD	022H
	DD	0535H
_volmd	DD	0ffffffffH
	DDSymXIndex: 	FLAT:checkbox_widget
	DD	022H
	DD	05b0H
_volmd	DD	0ffffffffH
	DDSymXIndex: 	FLAT:button_widget
	DD	01dH
	DD	02f8H
_volmd	DD	0ffffffffH
	DDSymXIndex: 	FLAT:get_window_client_rect
	DD	015H
	DD	06bH
_volmd	DD	0ffffffffH
	DDSymXIndex: 	FLAT:get_window_rect
	DD	015H
	DD	07dH
_volmd	DD	0ffffffffH
	DDSymXIndex: 	FLAT:get_monitor_rect
	DD	015H
	DD	07cH
_volmd	DD	0ffffffffH
	DDSymXIndex: 	FLAT:text_rect
	DD	023H
	DD	09aH
_volmd	DD	0ffffffffH
	DDSymXIndex: 	FLAT:rect_center
	DD	01fH
	DD	0e6H
_volmd	DD	0ffffffffH
	DDSymXIndex: 	FLAT:rect_cut
	DD	027H
	DD	02a0H
_volmd	DD	0ffffffffH
	DDSymXIndex: 	FLAT:rect_by_xyxy
	DD	026H
	DD	0163H
_volmd	DD	0ffffffffH
	DDSymXIndex: 	FLAT:rxinit
	DD	018H
	DD	0ba0H
_volmd	DD	0ffffffffH
	DDSymXIndex: 	FLAT:rxinit_default_font
	DD	014H
	DD	0313aH
_volmd	DD	0ffffffffH
	DDSymXIndex: 	FLAT:rxcreate_simple_stencil_state_d3d
	DD	016H
	DD	0baH
_volmd	DD	0ffffffffH
	DDSymXIndex: 	FLAT:rxtick
	DD	014H
	DD	05edH
_volmd	DD	0ffffffffH
	DDSymXIndex: 	FLAT:rxwindow_resize
	DD	016H
	DD	080H
_volmd	DD	0ffffffffH
	DDSymXIndex: 	FLAT:rxwindow_create
	DD	016H
	DD	01a6H
_volmd	DD	0ffffffffH
	DDSymXIndex: 	FLAT:rxwindow_poll
	DD	011H
	DD	0d5H
_volmd	DD	0ffffffffH
	DDSymXIndex: 	FLAT:rxrestore_render_stack
	DD	014H
	DD	0367H
_volmd	DD	0ffffffffH
	DDSymXIndex: 	FLAT:rxdraw_text
	DD	022H
	DD	0c4H
_volmd	DD	0ffffffffH
	DDSymXIndex: 	FLAT:rxtexture_scaled
	DD	02aH
	DD	012eH
_volmd	DD	0ffffffffH
	DDSymXIndex: 	FLAT:rxdraw_skinned
	DD	02aH
	DD	0114H
_volmd	DD	0ffffffffH
	DDSymXIndex: 	FLAT:rxvertex_mode
	DD	014H
	DD	0112H
_volmd	DD	0ffffffffH
	DDSymXIndex: 	FLAT:rxcomexc
	DD	01cH
	DD	0860H
_volmd	DD	0ffffffffH
	DDSymXIndex: 	FLAT:rxdriver_stage_viewport
	DD	01aH
	DD	081H
_volmd	DD	0ffffffffH
	DDSymXIndex: 	FLAT:rxcreate_struct_buffer
	DD	018H
	DD	0d3H
_volmd	DD	0ffffffffH
	DDSymXIndex: 	FLAT:rxcreate_vertex_buffer
	DD	018H
	DD	084H
_volmd	DD	0ffffffffH
	DDSymXIndex: 	FLAT:rxcreate_index_buffer
	DD	018H
	DD	084H
_volmd	DD	0ffffffffH
	DDSymXIndex: 	FLAT:rxuniform_buffer_create
	DD	017H
	DD	08bH
_volmd	DD	0ffffffffH
	DDSymXIndex: 	FLAT:rxcreate_shader
	DD	021H
	DD	0589H
_volmd	DD	0ffffffffH
	DDSymXIndex: 	FLAT:rxinvalidate_contents
	DD	011H
	DD	01d7H
_volmd	DD	0ffffffffH
	DDSymXIndex: 	FLAT:rxtexture_create_untyped
	DD	026H
	DD	04a2H
_volmd	DD	0ffffffffH
	DDSymXIndex: 	FLAT:rxmatrix_flip_vertically
	DD	018H
	DD	07fH
_volmd	DD	0ffffffffH
	DDSymXIndex: 	FLAT:rxmatrix_translate_xyz
	DD	02aH
	DD	0dcH
_volmd	DD	0ffffffffH
	DDSymXIndex: 	FLAT:rxmatrix_rotX
	DD	01eH
	DD	0118H
_volmd	DD	0ffffffffH
	DDSymXIndex: 	FLAT:rxmatrix_rotY
	DD	01eH
	DD	011cH
_volmd	DD	0ffffffffH
	DDSymXIndex: 	FLAT:rxmatrix_rotZ
	DD	01eH
	DD	011cH
_volmd	DD	0ffffffffH
	DDSymXIndex: 	FLAT:rxmatrix_projection
	DD	02aH
	DD	01d6H
_volmd	DD	0ffffffffH
	DDSymXIndex: 	FLAT:rxvector_abs
	DD	01aH
	DD	0fbH
_volmd	DD	0ffffffffH
	DDSymXIndex: 	FLAT:rxvector_max
	DD	020H
	DD	0eaH
_volmd	DD	0ffffffffH
	DDSymXIndex: 	FLAT:rxvector_min
	DD	020H
	DD	0eaH
_volmd	DD	0ffffffffH
	DDSymXIndex: 	FLAT:rxvector_negate
	DD	01aH
	DD	07aH
_volmd	DD	0ffffffffH
	DDSymXIndex: 	FLAT:rxvector_scale
	DD	020H
	DD	07dH
_volmd	DD	0ffffffffH
	DDSymXIndex: 	FLAT:rxvector_downscale
	DD	020H
	DD	07dH
_volmd	DD	0ffffffffH
	DDSymXIndex: 	FLAT:rxvector_mul
	DD	01fH
	DD	087H
_volmd	DD	0ffffffffH
	DDSymXIndex: 	FLAT:rxvector_sub
	DD	01fH
	DD	087H
_volmd	DD	0ffffffffH
	DDSymXIndex: 	FLAT:rxvector_add
	DD	01fH
	DD	087H
_volmd	DD	0ffffffffH
	DDSymXIndex: 	FLAT:rxmatrix_multiply
	DD	01fH
	DD	01c2H
_volmd	DD	0ffffffffH
	DDSymXIndex: 	FLAT:rxmatrix_identity
	DD	015H
	DD	0226H
_volmd	DD	0ffffffffH
	DDSymXIndex: 	FLAT:rxvec3_xyz
	DD	027H
	DD	067H
_volmd	DD	0ffffffffH
	DDSymXIndex: 	FLAT:stbi_write_jpg_core
	DD	02aH
	DD	01237H
_volmd	DD	0ffffffffH
	DDSymXIndex: 	FLAT:stbiw__jpg_processDU
	DD	027H
	DD	06cfH
_volmd	DD	0ffffffffH
	DDSymXIndex: 	FLAT:stbi_write_png_to_mem
	DD	026H
	DD	0c19H
_volmd	DD	0ffffffffH
	DDSymXIndex: 	FLAT:stbi_write_hdr_core
	DD	026H
	DD	0231H
_volmd	DD	0ffffffffH
	DDSymXIndex: 	FLAT:stbiw__write_hdr_scanline
	DD	021H
	DD	05f9H
_volmd	DD	0ffffffffH
	DDSymXIndex: 	FLAT:stbi_write_jpg_to_func
	DD	026H
	DD	092H
_volmd	DD	0ffffffffH
	DDSymXIndex: 	FLAT:stbi_write_hdr_to_func
	DD	026H
	DD	087H
_volmd	DD	0ffffffffH
	DDSymXIndex: 	FLAT:stbi_write_tga_to_func
	DD	026H
	DD	087H
_volmd	DD	0ffffffffH
	DDSymXIndex: 	FLAT:stbi_write_bmp_to_func
	DD	026H
	DD	087H
_volmd	DD	0ffffffffH
	DDSymXIndex: 	FLAT:stbi_write_jpg
	DD	025H
	DD	0a5H
_volmd	DD	0ffffffffH
	DDSymXIndex: 	FLAT:stbi_write_hdr
	DD	025H
	DD	09aH
_volmd	DD	0ffffffffH
	DDSymXIndex: 	FLAT:stbi_write_tga
	DD	025H
	DD	09aH
_volmd	DD	0ffffffffH
	DDSymXIndex: 	FLAT:stbi_write_bmp
	DD	025H
	DD	09aH
_volmd	DD	0ffffffffH
	DDSymXIndex: 	FLAT:stbi__pic_load_core
	DD	024H
	DD	0640H
_volmd	DD	0ffffffffH
	DDSymXIndex: 	FLAT:stbi__parse_png_file
	DD	021H
	DD	0e27H
_volmd	DD	0ffffffffH
	DDSymXIndex: 	FLAT:stbi__create_png_image
	DD	027H
	DD	057dH
_volmd	DD	0ffffffffH
	DDSymXIndex: 	FLAT:stbi__compute_huffman_codes
	DD	016H
	DD	02fbH
_volmd	DD	0ffffffffH
	DDSymXIndex: 	FLAT:stbi__zbuild_huffman
	DD	020H
	DD	0368H
_volmd	DD	0ffffffffH
	DDSymXIndex: 	FLAT:load_jpeg_image
	DD	025H
	DD	01190H
_volmd	DD	0ffffffffH
	DDSymXIndex: 	FLAT:stbi__process_marker
	DD	01aH
	DD	069cH
_volmd	DD	0ffffffffH
	DDSymXIndex: 	FLAT:stbi__parse_entropy_coded_data
	DD	016H
	DD	0c3cH
_volmd	DD	0ffffffffH
	DDSymXIndex: 	FLAT:stbi__idct_block
	DD	01fH
	DD	0a83H
_volmd	DD	0ffffffffH
	DDSymXIndex: 	FLAT:stbi__loadf_main
	DD	022H
	DD	0167H
_volmd	DD	0ffffffffH
	DDSymXIndex: 	FLAT:stbi__load_and_postprocess_16bit
	DD	025H
	DD	01b6H
_volmd	DD	0ffffffffH
	DDSymXIndex: 	FLAT:stbi__load_and_postprocess_8bit
	DD	025H
	DD	01b0H
_volmd	DD	0ffffffffH
	DDSymXIndex: 	FLAT:stbi__vertical_flip
	DD	024H
	DD	0182H
_volmd	DD	0ffffffffH
	DDSymXIndex: 	FLAT:stbi__load_gif_main
	DD	02dH
	DD	0586H
_volmd	DD	0ffffffffH
	DDSymXIndex: 	FLAT:stbi__gif_load
	DD	02dH
	DD	0216H
_volmd	DD	0ffffffffH
	DDSymXIndex: 	FLAT:stbi__pic_info
	DD	022H
	DD	0270H
_volmd	DD	0ffffffffH
	DDSymXIndex: 	FLAT:stbi__hdr_info
	DD	025H
	DD	0203H
_volmd	DD	0ffffffffH
	DDSymXIndex: 	FLAT:stbi__hdr_load
	DD	027H
	DD	0bc3H
_volmd	DD	0ffffffffH
	DDSymXIndex: 	FLAT:stbi__bmp_info
	DD	022H
	DD	0e7H
_volmd	DD	0ffffffffH
	DDSymXIndex: 	FLAT:stbi__bmp_load
	DD	027H
	DD	012f4H
_volmd	DD	0ffffffffH
	DDSymXIndex: 	FLAT:stbi__cpuid3
	DD	010H
	DD	03dH
_volmd	DD	0ffffffffH
	DDSymXIndex: 	FLAT:stbi_zlib_decode_noheader_buffer
	DD	02aH
	DD	09cH
_volmd	DD	0ffffffffH
	DDSymXIndex: 	FLAT:stbi_zlib_decode_noheader_malloc
	DD	027H
	DD	012cH
_volmd	DD	0ffffffffH
	DDSymXIndex: 	FLAT:stbi_zlib_decode_buffer
	DD	02aH
	DD	09cH
_volmd	DD	0ffffffffH
	DDSymXIndex: 	FLAT:stbi_zlib_decode_malloc_guesssize_headerflag
	DD	02cH
	DD	013cH
_volmd	DD	0ffffffffH
	DDSymXIndex: 	FLAT:stbi_zlib_decode_malloc_guesssize
	DD	02cH
	DD	0139H
_volmd	DD	0ffffffffH
	DDSymXIndex: 	FLAT:stbi_is_16_bit_from_file
	DD	016H
	DD	067H
_volmd	DD	0ffffffffH
	DDSymXIndex: 	FLAT:stbi_info_from_file
	DD	025H
	DD	08eH
_volmd	DD	0ffffffffH
	DDSymXIndex: 	FLAT:stbi_is_16_bit_from_callbacks
	DD	01bH
	DD	047H
_volmd	DD	0ffffffffH
	DDSymXIndex: 	FLAT:stbi_is_16_bit_from_memory
	DD	01aH
	DD	046H
_volmd	DD	0ffffffffH
	DDSymXIndex: 	FLAT:stbi_info_from_callbacks
	DD	025H
	DD	069H
_volmd	DD	0ffffffffH
	DDSymXIndex: 	FLAT:stbi_info_from_memory
	DD	024H
	DD	068H
_volmd	DD	0ffffffffH
	DDSymXIndex: 	FLAT:stbi_is_hdr_from_file
	DD	016H
	DD	067H
_volmd	DD	0ffffffffH
	DDSymXIndex: 	FLAT:stbi_is_hdr_from_memory
	DD	01aH
	DD	046H
_volmd	DD	0ffffffffH
	DDSymXIndex: 	FLAT:stbi_is_hdr_from_callbacks
	DD	01bH
	DD	047H
_volmd	DD	0ffffffffH
	DDSymXIndex: 	FLAT:stbi_loadf_from_file
	DD	025H
	DD	06cH
_volmd	DD	0ffffffffH
	DDSymXIndex: 	FLAT:stbi_loadf_from_callbacks
	DD	025H
	DD	074H
_volmd	DD	0ffffffffH
	DDSymXIndex: 	FLAT:stbi_loadf_from_memory
	DD	024H
	DD	073H
_volmd	DD	0ffffffffH
	DDSymXIndex: 	FLAT:stbi_load_from_file_16
	DD	025H
	DD	0abH
_volmd	DD	0ffffffffH
	DDSymXIndex: 	FLAT:stbi_load_16_from_callbacks
	DD	025H
	DD	074H
_volmd	DD	0ffffffffH
	DDSymXIndex: 	FLAT:stbi_load_16_from_memory
	DD	024H
	DD	073H
_volmd	DD	0ffffffffH
	DDSymXIndex: 	FLAT:stbi_load_gif_from_memory
	DD	024H
	DD	0123H
_volmd	DD	0ffffffffH
	DDSymXIndex: 	FLAT:stbi_load_from_file
	DD	025H
	DD	0abH
_volmd	DD	0ffffffffH
	DDSymXIndex: 	FLAT:stbi_load_from_callbacks
	DD	025H
	DD	074H
_volmd	DD	0ffffffffH
	DDSymXIndex: 	FLAT:stbi_load_from_memory
	DD	024H
	DD	073H
_volmd	DD	0ffffffffH
	DDSymXIndex: 	FLAT:stbsp_vsnprintf
	DD	024H
	DD	0117H
_volmd	DD	0ffffffffH
	DDSymXIndex: 	FLAT:stbsp_vsprintfcb
	DD	025H
	DD	02b4eH
	DD	02b50H
	DD	032eeH
voltbl	ENDS
xdata	SEGMENT
$unwind$stbsp_vsprintf DD 011301H
	DD	06213H
$unwind$stbsp_vsnprintf DD 022c19H
	DD	04d011aH
	DD	imagerel __GSHandlerCheck
	DD	0250H
$unwind$stbsp_sprintf DD 011801H
	DD	08218H
$unwind$stbsp_snprintf DD 011701H
	DD	06217H
$unwind$stbsp_vsprintfcb DD 022d19H
	DD	08d011bH
	DD	imagerel __GSHandlerCheck
	DD	0450H
$unwind$stbsp__real_to_str DD 021b01H
	DD	017011bH
$unwind$stbsp__real_to_parts DD 011401H
	DD	04214H
$unwind$stbsp__strlen_limited DD 010d01H
	DD	0220dH
$unwind$stbsp__clamp_callback DD 011301H
	DD	06213H
$unwind$stbsp__count_clamp_callback DD 011301H
	DD	02213H
$unwind$stbsp__raise_to_power10 DD 021c01H
	DD	035011cH
$unwind$ccuserallocator_ DD 031501H
	DD	07011a215H
	DD	06010H
$unwind$ccinternalallocator_ DD 011301H
	DD	04213H
$unwind$ccinit DD 010401H
	DD	06204H
$unwind$ccformatvex DD 011701H
	DD	04217H
$unwind$ccformatv DD 010e01H
	DD	0620eH
$unwind$ccformat DD 011801H
	DD	06218H
$unwind$ccclocktick DD 010401H
	DD	06204H
$unwind$cccaller DD 031901H
	DD	070154219H
	DD	06014H
$unwind$ccdlbadd_ DD 041c01H
	DD	02d011cH
	DD	060147015H
$unwind$cctblhsh_ DD 041d01H
	DD	03d011dH
	DD	060157016H
$unwind$cctblgeti_ DD 041d01H
	DD	015011dH
	DD	060157016H
$unwind$cctblputi_ DD 041d01H
	DD	01b011dH
	DD	060157016H
$unwind$cctblseti_ DD 041d01H
	DD	015011dH
	DD	060157016H
$unwind$ccdlbdel_ DD 040e01H
	DD	025010eH
	DD	060067007H
$unwind$ccfnames DD 010901H
	DD	02209H
$unwind$cctrace_ DD 011801H
	DD	08218H
$unwind$ccprintf DD 041d01H
	DD	01b011dH
	DD	060157016H
$unwind$ccout DD 010901H
	DD	04209H
$unwind$ccstatic_alloc DD 041101H
	DD	0110111H
	DD	06009700aH
$unwind$ccallocentry DD 040e01H
	DD	011010eH
	DD	060067007H
$unwind$cccheck_ward DD 041301H
	DD	0610113H
	DD	0600b700cH
$unwind$ccfileext DD 010901H
	DD	02209H
$unwind$ccrealfile DD 010901H
	DD	02209H
$unwind$ccfilesize DD 010901H
	DD	04209H
$unwind$ccflushfile DD 040e01H
	DD	011010eH
	DD	060067007H
$unwind$ccclosefile DD 010901H
	DD	04209H
$unwind$ccopenfile DD 041301H
	DD	01b0113H
	DD	0600b700cH
$unwind$ccfnameh__ DD 010901H
	DD	08209H
$unwind$ccfnameh DD 010901H
	DD	04209H
$unwind$ccpullfile DD 041701H
	DD	0350117H
	DD	0600f7010H
$unwind$ccpushfile DD 041c01H
	DD	02b011cH
	DD	060147015H
$unwind$stbi_load_from_memory DD 022c19H
	DD	025011aH
	DD	imagerel __GSHandlerCheck
	DD	0110H
$unwind$stbi_load_from_callbacks DD 022d19H
	DD	025011bH
	DD	imagerel __GSHandlerCheck
	DD	0110H
$unwind$stbi_load DD 011801H
	DD	0a218H
$unwind$stbi_load_from_file DD 022d19H
	DD	027011bH
	DD	imagerel __GSHandlerCheck
	DD	0120H
$unwind$stbi_load_gif_from_memory DD 022c19H
	DD	029011aH
	DD	imagerel __GSHandlerCheck
	DD	0130H
$unwind$stbi_load_16_from_memory DD 022c19H
	DD	025011aH
	DD	imagerel __GSHandlerCheck
	DD	0110H
$unwind$stbi_load_16_from_callbacks DD 022d19H
	DD	025011bH
	DD	imagerel __GSHandlerCheck
	DD	0110H
$unwind$stbi_load_16 DD 011801H
	DD	0a218H
$unwind$stbi_load_from_file_16 DD 022d19H
	DD	027011bH
	DD	imagerel __GSHandlerCheck
	DD	0120H
$unwind$stbi_loadf_from_memory DD 022c19H
	DD	025011aH
	DD	imagerel __GSHandlerCheck
	DD	0110H
$unwind$stbi_loadf_from_callbacks DD 022d19H
	DD	025011bH
	DD	imagerel __GSHandlerCheck
	DD	0110H
$unwind$stbi_loadf DD 011801H
	DD	0a218H
$unwind$stbi_loadf_from_file DD 022d19H
	DD	025011bH
	DD	imagerel __GSHandlerCheck
	DD	0110H
$unwind$stbi_is_hdr_from_callbacks DD 022319H
	DD	0230111H
	DD	imagerel __GSHandlerCheck
	DD	0100H
$unwind$stbi_is_hdr_from_memory DD 022219H
	DD	0230110H
	DD	imagerel __GSHandlerCheck
	DD	0100H
$unwind$stbi_is_hdr DD 010901H
	DD	06209H
$unwind$stbi_is_hdr_from_file DD 021e19H
	DD	025010cH
	DD	imagerel __GSHandlerCheck
	DD	0110H
$unwind$stbi_image_free DD 030b01H
	DD	07007e20bH
	DD	06006H
$unwind$stbi_info_from_memory DD 022c19H
	DD	023011aH
	DD	imagerel __GSHandlerCheck
	DD	0100H
$unwind$stbi_info_from_callbacks DD 022d19H
	DD	023011bH
	DD	imagerel __GSHandlerCheck
	DD	0100H
$unwind$stbi_is_16_bit_from_memory DD 022219H
	DD	0230110H
	DD	imagerel __GSHandlerCheck
	DD	0100H
$unwind$stbi_is_16_bit_from_callbacks DD 022319H
	DD	0230111H
	DD	imagerel __GSHandlerCheck
	DD	0100H
$unwind$stbi_info DD 011801H
	DD	06218H
$unwind$stbi_info_from_file DD 022d19H
	DD	025011bH
	DD	imagerel __GSHandlerCheck
	DD	0110H
$unwind$stbi_is_16_bit DD 010901H
	DD	06209H
$unwind$stbi_is_16_bit_from_file DD 021e19H
	DD	025010cH
	DD	imagerel __GSHandlerCheck
	DD	0110H
$unwind$stbi_zlib_decode_malloc_guesssize DD 043419H
	DD	02130122H
	DD	060147015H
	DD	imagerel __GSHandlerCheck
	DD	01080H
$unwind$stbi_zlib_decode_malloc_guesssize_headerflag DD 043419H
	DD	02130122H
	DD	060147015H
	DD	imagerel __GSHandlerCheck
	DD	01080H
$unwind$stbi_zlib_decode_malloc DD 011201H
	DD	04212H
$unwind$stbi_zlib_decode_buffer DD 023219H
	DD	02090120H
	DD	imagerel __GSHandlerCheck
	DD	01030H
$unwind$stbi_zlib_decode_noheader_malloc DD 042f19H
	DD	0213011dH
	DD	0600f7010H
	DD	imagerel __GSHandlerCheck
	DD	01080H
$unwind$stbi_zlib_decode_noheader_buffer DD 023219H
	DD	02090120H
	DD	imagerel __GSHandlerCheck
	DD	01030H
$unwind$stbi__cpuid3 DD 021519H
	DD	030023206H
	DD	imagerel __GSHandlerCheck
	DD	010H
$unwind$stbi__sse2_available DD 010401H
	DD	06204H
$unwind$stbi__refill_buffer DD 010901H
	DD	06209H
$unwind$stbi__start_mem DD 011301H
	DD	02213H
$unwind$stbi__start_callbacks DD 031501H
	DD	070116215H
	DD	06010H
$unwind$stbi__stdio_read DD 011301H
	DD	04213H
$unwind$stbi__stdio_skip DD 010d01H
	DD	0620dH
$unwind$stbi__stdio_eof DD 010901H
	DD	06209H
$unwind$stbi__start_file DD 010e01H
	DD	0420eH
$unwind$stbi__jpeg_test DD 040e01H
	DD	011010eH
	DD	060067007H
$unwind$stbi__jpeg_load DD 041d01H
	DD	013011dH
	DD	060157016H
$unwind$stbi__jpeg_info DD 041d01H
	DD	011011dH
	DD	060157016H
$unwind$stbi__png_test DD 010901H
	DD	06209H
$unwind$stbi__png_load DD 011801H
	DD	0c218H
$unwind$stbi__png_info DD 011801H
	DD	0a218H
$unwind$stbi__png_is16 DD 010901H
	DD	0a209H
$unwind$stbi__bmp_test DD 010901H
	DD	06209H
$unwind$stbi__bmp_load DD 042f19H
	DD	0cf011dH
	DD	060157016H
	DD	imagerel __GSHandlerCheck
	DD	0660H
$unwind$stbi__bmp_info DD 012719H
	DD	0c218H
	DD	imagerel __GSHandlerCheck
	DD	058H
$unwind$stbi__tga_test DD 010901H
	DD	06209H
$unwind$stbi__tga_load DD 041d01H
	DD	04d011dH
	DD	060157016H
$unwind$stbi__tga_info DD 011801H
	DD	0a218H
$unwind$stbi__psd_test DD 010901H
	DD	06209H
$unwind$stbi__psd_load DD 041d01H
	DD	02d011dH
	DD	060157016H
$unwind$stbi__psd_info DD 011801H
	DD	06218H
$unwind$stbi__psd_is16 DD 010901H
	DD	06209H
$unwind$stbi__hdr_test DD 010901H
	DD	06209H
$unwind$stbi__hdr_load DD 042f19H
	DD	0eb011dH
	DD	060157016H
	DD	imagerel __GSHandlerCheck
	DD	0740H
$unwind$stbi__hdr_info DD 022d19H
	DD	089011bH
	DD	imagerel __GSHandlerCheck
	DD	0430H
$unwind$stbi__pic_test DD 010901H
	DD	06209H
$unwind$stbi__pic_load DD 041d01H
	DD	019011dH
	DD	060157016H
$unwind$stbi__pic_info DD 012719H
	DD	0e218H
	DD	imagerel __GSHandlerCheck
	DD	060H
$unwind$stbi__gif_test DD 010901H
	DD	06209H
$unwind$stbi__gif_load DD 043519H
	DD	011310123H
	DD	060157016H
	DD	imagerel __GSHandlerCheck
	DD	08970H
$unwind$stbi__load_gif_main DD 043519H
	DD	011490123H
	DD	060157016H
	DD	imagerel __GSHandlerCheck
	DD	08a30H
$unwind$stbi__gif_info DD 011801H
	DD	04218H
$unwind$stbi__pnm_test DD 010901H
	DD	06209H
$unwind$stbi__pnm_load DD 011801H
	DD	0c218H
$unwind$stbi__pnm_info DD 011801H
	DD	06218H
$unwind$stbi__pnm_is16 DD 010901H
	DD	04209H
$unwind$stbi__malloc DD 030b01H
	DD	07007e20bH
	DD	06006H
$unwind$stbi__addsizes_valid DD 010c01H
	DD	0220cH
$unwind$stbi__mul2sizes_valid DD 010c01H
	DD	0220cH
$unwind$stbi__mad2sizes_valid DD 011101H
	DD	06211H
$unwind$stbi__mad3sizes_valid DD 011601H
	DD	06216H
$unwind$stbi__mad4sizes_valid DD 011601H
	DD	06216H
$unwind$stbi__malloc_mad2 DD 011101H
	DD	04211H
$unwind$stbi__malloc_mad3 DD 011601H
	DD	04216H
$unwind$stbi__malloc_mad4 DD 011601H
	DD	06216H
$unwind$stbi__ldr_to_hdr DD 041c01H
	DD	01d011cH
	DD	060147015H
$unwind$stbi__hdr_to_ldr DD 041c01H
	DD	01d011cH
	DD	060147015H
$unwind$stbi__load_main DD 011801H
	DD	0c218H
$unwind$stbi__convert_16_to_8 DD 041c01H
	DD	013011cH
	DD	060147015H
$unwind$stbi__convert_8_to_16 DD 041c01H
	DD	013011cH
	DD	060147015H
$unwind$stbi__vertical_flip DD 022c19H
	DD	010f011aH
	DD	imagerel __GSHandlerCheck
	DD	0860H
$unwind$stbi__vertical_flip_slices DD 011701H
	DD	06217H
$unwind$stbi__load_and_postprocess_8bit DD 022a19H
	DD	011011bH
	DD	imagerel __GSHandlerCheck
	DD	070H
$unwind$stbi__load_and_postprocess_16bit DD 022a19H
	DD	011011bH
	DD	imagerel __GSHandlerCheck
	DD	070H
$unwind$stbi__float_postprocess DD 011801H
	DD	06218H
$unwind$stbi__fopen DD 010e01H
	DD	0620eH
$unwind$stbi__loadf_main DD 012719H
	DD	0e218H
	DD	imagerel __GSHandlerCheck
	DD	060H
$unwind$stbi__get8 DD 010901H
	DD	06209H
$unwind$stbi__at_eof DD 010901H
	DD	06209H
$unwind$stbi__skip DD 010d01H
	DD	0620dH
$unwind$stbi__getn DD 011301H
	DD	06213H
$unwind$stbi__get16be DD 010901H
	DD	06209H
$unwind$stbi__get32be DD 010901H
	DD	06209H
$unwind$stbi__get16le DD 010901H
	DD	06209H
$unwind$stbi__get32le DD 010901H
	DD	06209H
$unwind$stbi__convert_format DD 041c01H
	DD	031011cH
	DD	060147015H
$unwind$stbi__convert_format16 DD 041c01H
	DD	031011cH
	DD	060147015H
$unwind$stbi__build_huffman DD 010e01H
	DD	0820eH
$unwind$stbi__build_fast_ac DD 010e01H
	DD	0620eH
$unwind$stbi__grow_buffer_unsafe DD 010901H
	DD	06209H
$unwind$stbi__jpeg_huff_decode DD 010e01H
	DD	0a20eH
$unwind$stbi__extend_receive DD 010d01H
	DD	0620dH
$unwind$stbi__jpeg_get_bits DD 010d01H
	DD	0620dH
$unwind$stbi__jpeg_get_bit DD 010901H
	DD	06209H
$unwind$stbi__jpeg_decode_block DD 011801H
	DD	0a218H
$unwind$stbi__jpeg_decode_block_prog_dc DD 011801H
	DD	08218H
$unwind$stbi__jpeg_decode_block_prog_ac DD 021b01H
	DD	011011bH
$unwind$stbi__idct_block DD 022719H
	DD	0390115H
	DD	imagerel __GSHandlerCheck
	DD	01b0H
$unwind$stbi__idct_simd DD 021501H
	DD	014f0115H
$unwind$stbi__get_marker DD 010901H
	DD	06209H
$unwind$stbi__jpeg_reset DD 010901H
	DD	02209H
$unwind$stbi__parse_entropy_coded_data DD 021e19H
	DD	03f010cH
	DD	imagerel __GSHandlerCheck
	DD	01e0H
$unwind$stbi__jpeg_dequantize DD 010e01H
	DD	0220eH
$unwind$stbi__jpeg_finish DD 010901H
	DD	08209H
$unwind$stbi__process_marker DD 022219H
	DD	01b0110H
	DD	imagerel __GSHandlerCheck
	DD	0c0H
$unwind$stbi__process_scan_header DD 010901H
	DD	08209H
$unwind$stbi__free_jpeg_components DD 041701H
	DD	0230117H
	DD	0600f7010H
$unwind$stbi__process_frame_header DD 010d01H
	DD	0c20dH
$unwind$stbi__decode_jpeg_header DD 010d01H
	DD	0620dH
$unwind$stbi__decode_jpeg_image DD 010901H
	DD	06209H
$unwind$stbi__resample_row_v_2 DD 011801H
	DD	02218H
$unwind$stbi__resample_row_h_2 DD 011801H
	DD	02218H
$unwind$stbi__resample_row_hv_2 DD 011801H
	DD	02218H
$unwind$stbi__resample_row_hv_2_simd DD 021b01H
	DD	033011bH
$unwind$stbi__resample_row_generic DD 011801H
	DD	02218H
$unwind$stbi__YCbCr_to_RGB_row DD 011801H
	DD	04218H
$unwind$stbi__YCbCr_to_RGB_simd DD 021b01H
	DD	047011bH
$unwind$stbi__setup_jpeg DD 010901H
	DD	04209H
$unwind$stbi__cleanup_jpeg DD 010901H
	DD	04209H
$unwind$stbi__blinn_8x8 DD 010c01H
	DD	0220cH
$unwind$load_jpeg_image DD 022d19H
	DD	03d011bH
	DD	imagerel __GSHandlerCheck
	DD	01d0H
$unwind$stbi__jpeg_info_raw DD 011801H
	DD	06218H
$unwind$stbi__bit_reverse DD 010c01H
	DD	0420cH
$unwind$stbi__zbuild_huffman DD 022819H
	DD	01d0116H
	DD	imagerel __GSHandlerCheck
	DD	0d0H
$unwind$stbi__zeof DD 010901H
	DD	02209H
$unwind$stbi__zget8 DD 010901H
	DD	06209H
$unwind$stbi__fill_bits DD 010901H
	DD	06209H
$unwind$stbi__zreceive DD 010d01H
	DD	0620dH
$unwind$stbi__zhuffman_decode_slowpath DD 010e01H
	DD	0820eH
$unwind$stbi__zhuffman_decode DD 010e01H
	DD	0620eH
$unwind$stbi__zexpand DD 041801H
	DD	0130118H
	DD	060107011H
$unwind$stbi__parse_huffman_block DD 010901H
	DD	08209H
$unwind$stbi__compute_huffman_codes DD 021e19H
	DD	0149010cH
	DD	imagerel __GSHandlerCheck
	DD	0a30H
$unwind$stbi__parse_uncompressed_block DD 010901H
	DD	06209H
$unwind$stbi__parse_zlib_header DD 010901H
	DD	06209H
$unwind$stbi__parse_zlib DD 010d01H
	DD	0620dH
$unwind$stbi__do_zlib DD 011801H
	DD	04218H
$unwind$stbi__get_chunk_header DD 010901H
	DD	06209H
$unwind$stbi__check_png_header DD 010901H
	DD	06209H
$unwind$stbi__paeth DD 011101H
	DD	06211H
$unwind$stbi__create_png_image_raw DD 021b01H
	DD	01b011bH
$unwind$stbi__create_png_image DD 042f19H
	DD	033011dH
	DD	060157016H
	DD	imagerel __GSHandlerCheck
	DD	0180H
$unwind$stbi__compute_transparency DD 011301H
	DD	08213H
$unwind$stbi__compute_transparency16 DD 011301H
	DD	08213H
$unwind$stbi__expand_png_palette DD 041d01H
	DD	015011dH
	DD	060157016H
$unwind$stbi__de_iphone DD 010901H
	DD	0a209H
$unwind$stbi__parse_png_file DD 042919H
	DD	0b70117H
	DD	0600f7010H
	DD	imagerel __GSHandlerCheck
	DD	05a0H
$unwind$stbi__do_png DD 041d01H
	DD	023011dH
	DD	060157016H
$unwind$stbi__png_info_raw DD 011801H
	DD	04218H
$unwind$stbi__bmp_test_raw DD 010901H
	DD	06209H
$unwind$stbi__high_bit DD 010801H
	DD	02208H
$unwind$stbi__shiftsigned DD 011101H
	DD	04211H
$unwind$stbi__bmp_parse_header DD 021101H
	DD	0110111H
$unwind$stbi__tga_get_comp DD 011101H
	DD	02211H
$unwind$stbi__tga_read_rgb16 DD 010e01H
	DD	0820eH
$unwind$stbi__psd_decode_rle DD 011301H
	DD	06213H
$unwind$stbi__pic_is4 DD 010e01H
	DD	0620eH
$unwind$stbi__pic_test_core DD 010901H
	DD	06209H
$unwind$stbi__readval DD 011201H
	DD	06212H
$unwind$stbi__copyval DD 011201H
	DD	02212H
$unwind$stbi__pic_load_core DD 022c19H
	DD	01f011aH
	DD	imagerel __GSHandlerCheck
	DD	0e8H
$unwind$stbi__gif_test_raw DD 010901H
	DD	06209H
$unwind$stbi__gif_parse_colortable DD 011801H
	DD	06218H
$unwind$stbi__gif_header DD 011801H
	DD	06218H
$unwind$stbi__gif_info_raw DD 041d01H
	DD	019011dH
	DD	060157016H
$unwind$stbi__out_gif_code DD 010e01H
	DD	0820eH
$unwind$stbi__process_gif_raster DD 021101H
	DD	0130111H
$unwind$stbi__gif_load_next DD 021b01H
	DD	013011bH
$unwind$stbi__load_gif_main_outofmem DD 041801H
	DD	0310118H
	DD	060107011H
$unwind$stbi__hdr_test_core DD 010e01H
	DD	0620eH
$unwind$stbi__hdr_gettoken DD 010e01H
	DD	0620eH
$unwind$stbi__hdr_convert DD 011301H
	DD	06213H
$unwind$stbi__pnm_isspace DD 010801H
	DD	02208H
$unwind$stbi__pnm_skip_whitespace DD 010e01H
	DD	0420eH
$unwind$stbi__pnm_isdigit DD 010801H
	DD	02208H
$unwind$stbi__pnm_getinteger DD 010e01H
	DD	0620eH
$unwind$stbi__info_main DD 011801H
	DD	04218H
$unwind$stbi__is_16_main DD 010901H
	DD	04209H
$unwind$stbi_write_png DD 041c01H
	DD	01b011cH
	DD	060147015H
$unwind$stbi_write_bmp DD 032d19H
	DD	016011bH
	DD	07014H
	DD	imagerel __GSHandlerCheck
	DD	0a0H
$unwind$stbi_write_tga DD 032d19H
	DD	016011bH
	DD	07014H
	DD	imagerel __GSHandlerCheck
	DD	0a0H
$unwind$stbi_write_hdr DD 032d19H
	DD	016011bH
	DD	07014H
	DD	imagerel __GSHandlerCheck
	DD	0a0H
$unwind$stbi_write_jpg DD 032d19H
	DD	016011bH
	DD	07014H
	DD	imagerel __GSHandlerCheck
	DD	0a0H
$unwind$stbi_write_png_to_func DD 041d01H
	DD	011011dH
	DD	060157016H
$unwind$stbi_write_bmp_to_func DD 032e19H
	DD	014011cH
	DD	07015H
	DD	imagerel __GSHandlerCheck
	DD	090H
$unwind$stbi_write_tga_to_func DD 032e19H
	DD	014011cH
	DD	07015H
	DD	imagerel __GSHandlerCheck
	DD	090H
$unwind$stbi_write_hdr_to_func DD 032e19H
	DD	014011cH
	DD	07015H
	DD	imagerel __GSHandlerCheck
	DD	090H
$unwind$stbi_write_jpg_to_func DD 032e19H
	DD	014011cH
	DD	07015H
	DD	imagerel __GSHandlerCheck
	DD	090H
$unwind$stbi__stdio_write DD 011301H
	DD	04213H
$unwind$stbiw__fopen DD 010e01H
	DD	0620eH
$unwind$stbi__start_write_file DD 010e01H
	DD	0620eH
$unwind$stbi__end_write_file DD 010901H
	DD	04209H
$unwind$stbiw__writefv DD 011301H
	DD	08213H
$unwind$stbiw__writef DD 011801H
	DD	06218H
$unwind$stbiw__write_flush DD 010901H
	DD	04209H
$unwind$stbiw__putc DD 010d01H
	DD	0420dH
$unwind$stbiw__write1 DD 010d01H
	DD	0420dH
$unwind$stbiw__write3 DD 011701H
	DD	06217H
$unwind$stbiw__write_pixel DD 011701H
	DD	08217H
$unwind$stbiw__write_pixels DD 011701H
	DD	0a217H
$unwind$stbiw__outfile DD 011701H
	DD	0c217H
$unwind$stbi_write_bmp_core DD 021a01H
	DD	031011aH
$unwind$stbi_write_tga_core DD 021a01H
	DD	023011aH
$unwind$stbiw__linear_to_rgbe DD 010e01H
	DD	0820eH
$unwind$stbiw__write_run_data DD 011201H
	DD	06212H
$unwind$stbiw__write_dump_data DD 011201H
	DD	06212H
$unwind$stbiw__write_hdr_scanline DD 012619H
	DD	0e217H
	DD	imagerel __GSHandlerCheck
	DD	060H
$unwind$stbi_write_hdr_core DD 042e19H
	DD	037011cH
	DD	060147015H
	DD	imagerel __GSHandlerCheck
	DD	01a0H
$unwind$stbiw__sbgrowf DD 041701H
	DD	0130117H
	DD	0600f7010H
$unwind$stbiw__zlib_flushf DD 011301H
	DD	06213H
$unwind$stbiw__zlib_bitrev DD 010c01H
	DD	0220cH
$unwind$stbiw__zlib_countm DD 011301H
	DD	02213H
$unwind$stbiw__zhash DD 010901H
	DD	02209H
$unwind$stbi_zlib_compress DD 041c01H
	DD	047011cH
	DD	060147015H
$unwind$stbiw__crc32 DD 010d01H
	DD	0220dH
$unwind$stbiw__wpcrc DD 010d01H
	DD	0620dH
$unwind$stbiw__paeth DD 011101H
	DD	06211H
$unwind$stbiw__encode_png_line DD 011701H
	DD	0e217H
$unwind$stbi_write_png_to_mem DD 042e19H
	DD	055011cH
	DD	060147015H
	DD	imagerel __GSHandlerCheck
	DD	0290H
$unwind$stbiw__jpg_writeBits DD 011801H
	DD	06218H
$unwind$stbiw__jpg_DCT DD 011801H
	DD	0e218H
$unwind$stbiw__jpg_calcBits DD 010d01H
	DD	0220dH
$unwind$stbiw__jpg_processDU DD 042f19H
	DD	035011dH
	DD	030157016H
	DD	imagerel __GSHandlerCheck
	DD	0190H
$unwind$stbi_write_jpg_core DD 023219H
	DD	029d0120H
	DD	imagerel __GSHandlerCheck
	DD	014d0H
$unwind$rxvec3 DD 031101H
	DD	0700d6211H
	DD	0600cH
$unwind$rxvec3_xyz DD 032c19H
	DD	07019421dH
	DD	06018H
	DD	imagerel __GSHandlerCheck
	DD	010H
$unwind$rxvec3_xy DD 031701H
	DD	070136217H
	DD	06012H
$unwind$rxvec3_x DD 031101H
	DD	0700d6211H
	DD	0600cH
$unwind$rxvec3_y DD 031101H
	DD	0700d6211H
	DD	0600cH
$unwind$rxvec3_z DD 031101H
	DD	0700d6211H
	DD	0600cH
$unwind$rxmatrix_identity DD 031a19H
	DD	07007a20bH
	DD	06006H
	DD	imagerel __GSHandlerCheck
	DD	040H
$unwind$rxmatrix_multiply DD 032419H
	DD	07011c215H
	DD	06010H
	DD	imagerel __GSHandlerCheck
	DD	050H
$unwind$rxremix DD 011c01H
	DD	0421cH
$unwind$rxclamp DD 011601H
	DD	02216H
$unwind$rxclampi DD 011101H
	DD	02211H
$unwind$rxmax DD 011001H
	DD	02210H
$unwind$rxmin DD 011001H
	DD	02210H
$unwind$rxmaxi DD 010c01H
	DD	0220cH
$unwind$rxmini DD 010c01H
	DD	0220cH
$unwind$rxvector_cross DD 031501H
	DD	070118215H
	DD	06010H
$unwind$rxvector_length DD 030b01H
	DD	07007820bH
	DD	06006H
$unwind$rxvec2_len DD 010901H
	DD	04209H
$unwind$rxvec2_add DD 010e01H
	DD	0220eH
$unwind$rxvec2_sub DD 010e01H
	DD	0220eH
$unwind$rxvector_add DD 032419H
	DD	070114215H
	DD	06010H
	DD	imagerel __GSHandlerCheck
	DD	010H
$unwind$rxvector_sub DD 032419H
	DD	070114215H
	DD	06010H
	DD	imagerel __GSHandlerCheck
	DD	010H
$unwind$rxvector_mul DD 032419H
	DD	070114215H
	DD	06010H
	DD	imagerel __GSHandlerCheck
	DD	010H
$unwind$rxvector_downscale DD 032519H
	DD	070124216H
	DD	06011H
	DD	imagerel __GSHandlerCheck
	DD	010H
$unwind$rxvector_scale DD 032519H
	DD	070124216H
	DD	06011H
	DD	imagerel __GSHandlerCheck
	DD	010H
$unwind$rxvector_negate DD 031f19H
	DD	0700c4210H
	DD	0600bH
	DD	imagerel __GSHandlerCheck
	DD	010H
$unwind$rxvector_min DD 032519H
	DD	070126216H
	DD	06011H
	DD	imagerel __GSHandlerCheck
	DD	020H
$unwind$rxvector_max DD 032519H
	DD	070126216H
	DD	06011H
	DD	imagerel __GSHandlerCheck
	DD	020H
$unwind$rxvector_abs DD 031f19H
	DD	0700c6210H
	DD	0600bH
	DD	imagerel __GSHandlerCheck
	DD	020H
$unwind$rxvector_normalize DD 031001H
	DD	0700cc210H
	DD	0600bH
$unwind$rxmatrix_projection DD 043219H
	DD	0170120H
	DD	060187019H
	DD	imagerel __GSHandlerCheck
	DD	0a0H
$unwind$rxmatrix_rotZ DD 042619H
	DD	0190114H
	DD	0600c700dH
	DD	imagerel __GSHandlerCheck
	DD	0b0H
$unwind$rxmatrix_rotY DD 042619H
	DD	0190114H
	DD	0600c700dH
	DD	imagerel __GSHandlerCheck
	DD	0b0H
$unwind$rxmatrix_rotX DD 042619H
	DD	0190114H
	DD	0600c700dH
	DD	imagerel __GSHandlerCheck
	DD	0b0H
$unwind$rxmatrix_translate_xyz DD 043219H
	DD	0170120H
	DD	060187019H
	DD	imagerel __GSHandlerCheck
	DD	0a0H
$unwind$rxmatrix_flip_vertically DD 042019H
	DD	017010eH
	DD	060067007H
	DD	imagerel __GSHandlerCheck
	DD	0a0H
$unwind$rxmul_matvec DD 031501H
	DD	070112215H
	DD	06010H
$unwind$rxadd_vec2 DD 010e01H
	DD	0220eH
$unwind$rxmul_vec2 DD 010e01H
	DD	0220eH
$unwind$rxvec2_xy DD 010c01H
	DD	0220cH
$unwind$rxvec2i_vec2 DD 010901H
	DD	02209H
$unwind$rxlinker_register_terminal DD 040e01H
	DD	019010eH
	DD	060067007H
$unwind$rxlinker_onlyquery_terminal DD 040e01H
	DD	011010eH
	DD	060067007H
$unwind$rxlinker_labelshas_terminal DD 010d01H
	DD	0620dH
$unwind$rxlinker_labelsadd_terminal DD 010d01H
	DD	0620dH
$unwind$rxlinker_labelsrem_terminal DD 010d01H
	DD	0620dH
$unwind$rxlinker_resolve_terminal DD 040e01H
	DD	033010eH
	DD	060067007H
$unwind$rxtexture_load DD 031001H
	DD	0700cc210H
	DD	0600bH
$unwind$rxtexture_create_untyped DD 042e19H
	DD	043011cH
	DD	060147015H
	DD	imagerel __GSHandlerCheck
	DD	0200H
$unwind$rxtexture_create_ex DD 041c01H
	DD	011011cH
	DD	060147015H
$unwind$rxtexture_create DD 031901H
	DD	07015a219H
	DD	06014H
$unwind$rxtexture_apply DD 041201H
	DD	0190112H
	DD	0600a700bH
$unwind$rxtexture_bind DD 030b01H
	DD	07007820bH
	DD	06006H
$unwind$rxtexture_borrow DD 041301H
	DD	01d0113H
	DD	0600b700cH
$unwind$rxrender_target_copy DD 010e01H
	DD	0c20eH
$unwind$rxrender_target_apply DD 041301H
	DD	02b0113H
	DD	0600b700cH
$unwind$rxsampler_apply DD 010d01H
	DD	0420dH
$unwind$rxsampler_bind DD 010901H
	DD	04209H
$unwind$rxshader_apply DD 040e01H
	DD	01b010eH
	DD	060067007H
$unwind$rxcompile_shader_bytecode DD 041c01H
	DD	025011cH
	DD	060147015H
$unwind$rxload_vertex_shader DD 041301H
	DD	03f0113H
	DD	0600b700cH
$unwind$rxload_pixel_shader DD 041301H
	DD	03f0113H
	DD	0600b700cH
$unwind$rxbuffer_borrow DD 041301H
	DD	01d0113H
	DD	0600b700cH
$unwind$rxuniform_buffer_delete DD 010901H
	DD	06209H
$unwind$rxuniform_buffer_update DD 041801H
	DD	0110118H
	DD	060107011H
$unwind$rxuniform_buffer_bind_ex DD 041201H
	DD	0110112H
	DD	0600a700bH
$unwind$rxenable_ztesting DD 010801H
	DD	06208H
$unwind$rxarticle_create DD 040e01H
	DD	019010eH
	DD	060067007H
$unwind$rxinvalidate_contents DD 021919H
	DD	0350107H
	DD	imagerel __GSHandlerCheck
	DD	0190H
$unwind$rxunknown_typeof_compute_shader DD 010901H
	DD	06209H
$unwind$rxunknown_typeof_vertex_shader DD 010901H
	DD	06209H
$unwind$rxunknown_typeof_pixel_shader DD 010901H
	DD	06209H
$unwind$rxshader_typeof_compute DD 010901H
	DD	04209H
$unwind$rxshader_typeof_vertex DD 010901H
	DD	04209H
$unwind$rxshader_typeof_pixel DD 010901H
	DD	04209H
$unwind$rxdelete_blobbler DD 010901H
	DD	04209H
$unwind$rxcreate_shader DD 042919H
	DD	0e30117H
	DD	0600f7010H
	DD	imagerel __GSHandlerCheck
	DD	0700H
$unwind$rxdelete_unknown DD 010901H
	DD	04209H
$unwind$rxdelete_vertex_buffer DD 010901H
	DD	04209H
$unwind$rxdelete_index_buffer DD 010901H
	DD	04209H
$unwind$rxreturn DD 010901H
	DD	04209H
$unwind$rxuniform_buffer_borrow DD 031001H
	DD	0700c8210H
	DD	0600bH
$unwind$rxuniform_buffer_create DD 011c19H
	DD	0a20dH
	DD	imagerel __GSHandlerCheck
	DD	048H
$unwind$rxcreate_index_buffer DD 011d19H
	DD	0a20eH
	DD	imagerel __GSHandlerCheck
	DD	048H
$unwind$rxcreate_vertex_buffer DD 011d19H
	DD	0a20eH
	DD	imagerel __GSHandlerCheck
	DD	048H
$unwind$rxcreate_struct_buffer DD 011d19H
	DD	0e20eH
	DD	imagerel __GSHandlerCheck
	DD	068H
$unwind$rxborrow_vertex_buffer DD 031001H
	DD	0700c8210H
	DD	0600bH
$unwind$rxborrow_index_buffer DD 031001H
	DD	0700c8210H
	DD	0600bH
$unwind$rxborrow_struct_buffer DD 031001H
	DD	0700c8210H
	DD	0600bH
$unwind$rxdriver_stage_viewport DD 011f19H
	DD	08210H
	DD	imagerel __GSHandlerCheck
	DD	038H
$unwind$rxcomtag DD 010901H
	DD	02209H
$unwind$rxcomadd DD 040d01H
	DD	011010dH
	DD	060057006H
$unwind$rx3d DD	010401H
	DD	04204H
$unwind$rx2d DD	010401H
	DD	04204H
$unwind$rxclip DD 041b01H
	DD	019011bH
	DD	060137014H
$unwind$rxsampler_bind_ex DD 010d01H
	DD	0620dH
$unwind$rxtexture_bind_ex DD 030f01H
	DD	0700b620fH
	DD	0600aH
$unwind$rxcomexc DD 042419H
	DD	08d0112H
	DD	0600a700bH
	DD	imagerel __GSHandlerCheck
	DD	0450H
$unwind$rxdraw_end DD 010401H
	DD	04204H
$unwind$rxqueue_custom_command DD 010901H
	DD	06209H
$unwind$rxdraw_matrix DD 030b01H
	DD	07007620bH
	DD	06006H
$unwind$rxqueue_shader_command DD 010901H
	DD	06209H
$unwind$rxqueue_uniform_command DD 010901H
	DD	06209H
$unwind$rxvertex_mode_end DD 030701H
	DD	07003e207H
	DD	06002H
$unwind$rxvertex_mode DD 041c19H
	DD	013010aH
	DD	060027003H
	DD	imagerel __GSHandlerCheck
	DD	080H
$unwind$rxsubmit_index DD 040d01H
	DD	019010dH
	DD	060057006H
$unwind$rxvertex_color DD 020701H
	DD	060067007H
$unwind$rxsubmit_vertex_array DD 010d01H
	DD	0420dH
$unwind$rxsubmit_vertex DD 020701H
	DD	060067007H
$unwind$rxsubmit_vertex_ex DD 042101H
	DD	01d0121H
	DD	06019701aH
$unwind$rx_vertex_xyz DD 031801H
	DD	07014a218H
	DD	06013H
$unwind$rx_vertex_xyz_color DD 031d01H
	DD	07019a21dH
	DD	06018H
$unwind$rxsubmit_vertex_xy DD 031201H
	DD	0700ea212H
	DD	0600dH
$unwind$rxsubmit_vertex_tex DD 031e01H
	DD	0701aa21eH
	DD	06019H
$unwind$rxdraw_skinned_preset_unnormalized DD 031d01H
	DD	07019a21dH
	DD	06018H
$unwind$rxdraw_skinned_unnormalized DD 041f01H
	DD	013011fH
	DD	060177018H
$unwind$rxdraw_skinned_ex DD 041f01H
	DD	013011fH
	DD	060177018H
$unwind$rxdraw_skinned DD 043219H
	DD	0150120H
	DD	060187019H
	DD	imagerel __GSHandlerCheck
	DD	090H
$unwind$rxtexture_scaled DD 043219H
	DD	0150120H
	DD	060187019H
	DD	imagerel __GSHandlerCheck
	DD	090H
$unwind$rxdraw_rect DD 042001H
	DD	0110120H
	DD	060187019H
$unwind$rxdraw_circle DD 031d01H
	DD	07019c21dH
	DD	06018H
$unwind$rxdraw_line DD 042001H
	DD	0110120H
	DD	060187019H
$unwind$rxdraw_outline DD 042001H
	DD	0130120H
	DD	060187019H
$unwind$rxdraw_text_length DD 010f01H
	DD	0620fH
$unwind$rxdraw_text_ex DD 041c01H
	DD	01f011cH
	DD	060147015H
$unwind$rxdraw_text DD 032719H
	DD	07014c218H
	DD	06013H
	DD	imagerel __GSHandlerCheck
	DD	050H
$unwind$rxtexture_delete DD 010901H
	DD	06209H
$unwind$rxcreate_render_target DD 041c01H
	DD	013011cH
	DD	060147015H
$unwind$rxtime DD 010401H
	DD	06204H
$unwind$rxeffect_candle DD 010401H
	DD	02204H
$unwind$rxeffect_shadow DD 010401H
	DD	02204H
$unwind$rxrestore_render_stack DD 041c19H
	DD	01d010aH
	DD	060027003H
	DD	imagerel __GSHandlerCheck
	DD	0d0H
$unwind$rxdefault_render_pass_end DD 040a01H
	DD	015010aH
	DD	060027003H
$unwind$rxwindow_message_handler_win32 DD 011201H
	DD	0a212H
$unwind$rxwindow_message_callback_win32 DD 011701H
	DD	06217H
$unwind$rxwindow_poll DD 021619H
	DD	0110107H
	DD	imagerel __GSHandlerCheck
	DD	070H
$unwind$rxwindow_create DD 021e19H
	DD	01d010cH
	DD	imagerel __GSHandlerCheck
	DD	0d0H
$unwind$rxwindow_enable DD 010401H
	DD	04204H
$unwind$rxwindow_resize DD 011b19H
	DD	0c20cH
	DD	imagerel __GSHandlerCheck
	DD	050H
$unwind$rxwindow_xy DD 010c01H
	DD	0820cH
$unwind$rxtick DD 041c19H
	DD	04d010aH
	DD	060027003H
	DD	imagerel __GSHandlerCheck
	DD	0258H
$unwind$rxcreate_simple_stencil_state_d3d DD 011b19H
	DD	0e20cH
	DD	imagerel __GSHandlerCheck
	DD	060H
$unwind$rxinit_default_font DD 041c19H
	DD	0df010aH
	DD	060027003H
	DD	imagerel __GSHandlerCheck
	DD	06e0H
$unwind$rxinit DD 042019H
	DD	07b010eH
	DD	060067007H
	DD	imagerel __GSHandlerCheck
	DD	03c0H
$unwind$load_bitmap8 DD 011201H
	DD	04212H
$unwind$is_click_leave_rect DD 030b01H
	DD	07007820bH
	DD	06006H
$unwind$is_click_enter_rect DD 030b01H
	DD	07007820bH
	DD	06006H
$unwind$mouse_is_key DD 010801H
	DD	02208H
$unwind$rect_by_xyxy DD 042e19H
	DD	01b011cH
	DD	060147015H
	DD	imagerel __GSHandlerCheck
	DD	0c0H
$unwind$rect_by_size DD 031901H
	DD	070158219H
	DD	06014H
$unwind$rect_in_xy DD 011201H
	DD	02212H
$unwind$rect_cut DD 042f19H
	DD	015011dH
	DD	060157016H
	DD	imagerel __GSHandlerCheck
	DD	098H
$unwind$rect_center DD 032419H
	DD	070114215H
	DD	06010H
	DD	imagerel __GSHandlerCheck
	DD	010H
$unwind$rect_padd DD 031a01H
	DD	07016a21aH
	DD	06015H
$unwind$text_rect DD 032819H
	DD	07015c219H
	DD	06014H
	DD	imagerel __GSHandlerCheck
	DD	050H
$unwind$set_window_rect DD 010e01H
	DD	0820eH
$unwind$get_monitor_rect DD 031a19H
	DD	07007c20bH
	DD	06006H
	DD	imagerel __GSHandlerCheck
	DD	058H
$unwind$get_window_rect DD 031a19H
	DD	07007e20bH
	DD	06006H
	DD	imagerel __GSHandlerCheck
	DD	060H
$unwind$get_window_client_rect DD 031a19H
	DD	07007c20bH
	DD	06006H
	DD	imagerel __GSHandlerCheck
	DD	050H
$unwind$draw_rect DD 031001H
	DD	0700ca210H
	DD	0600bH
$unwind$draw_text DD 031a01H
	DD	07016821aH
	DD	06015H
$unwind$set_clip_rect DD 010901H
	DD	04209H
$unwind$button_widget DD 042519H
	DD	02d0113H
	DD	0600b700cH
	DD	imagerel __GSHandlerCheck
	DD	0150H
$unwind$checkbox_widget DD 042a19H
	DD	0470118H
	DD	060107011H
	DD	imagerel __GSHandlerCheck
	DD	0220H
$unwind$dropdown_widget DD 042a19H
	DD	0470118H
	DD	060107011H
	DD	imagerel __GSHandlerCheck
	DD	0220H
$unwind$cursor_in_rect DD 030b01H
	DD	07007620bH
	DD	06006H
$unwind$is_click_enter DD 010801H
	DD	04208H
$unwind$list_item_widget DD 042a19H
	DD	0210118H
	DD	060107011H
	DD	imagerel __GSHandlerCheck
	DD	0f0H
$unwind$slider_widget DD 043119H
	DD	025011fH
	DD	060177018H
	DD	imagerel __GSHandlerCheck
	DD	0110H
$unwind$is_click_leave DD 010801H
	DD	04208H
$unwind$mouse_poll DD 010401H
	DD	08204H
$unwind$erecache DD 011201H
	DD	08212H
$unwind$egetlen DD 010d01H
	DD	0620dH
$unwind$egetoff DD 010d01H
	DD	0620dH
$unwind$esetcur DD 020c01H
	DD	0600b700cH
$unwind$egetcur DD 020c01H
	DD	0600b700cH
$unwind$egetcurx DD 010901H
	DD	08209H
$unwind$egetcury DD 010901H
	DD	08209H
$unwind$ecurloc DD 010901H
	DD	06209H
$unwind$currec DD 031501H
	DD	07011a215H
	DD	06010H
$unwind$emovcurx DD 042419H
	DD	0130112H
	DD	0600a700bH
	DD	imagerel __GSHandlerCheck
	DD	080H
$unwind$emovcury DD 042419H
	DD	0130112H
	DD	0600a700bH
	DD	imagerel __GSHandlerCheck
	DD	080H
$unwind$eputchar DD 010d01H
	DD	0820dH
$unwind$edelchar DD 010901H
	DD	08209H
$unwind$fload DD 010e01H
	DD	0a20eH
$unwind$fsave DD 010e01H
	DD	0620eH
$unwind$ewdg DD	042519H
	DD	02d0113H
	DD	0600b700cH
	DD	imagerel __GSHandlerCheck
	DD	0150H
$unwind$copy_string_ex DD 041201H
	DD	0110112H
	DD	0600a700bH
$unwind$copy_string DD 010901H
	DD	04209H
$unwind$fdlg DD	021919H
	DD	03d0107H
	DD	imagerel __GSHandlerCheck
	DD	01d0H
$unwind$main DD	042419H
	DD	0170112H
	DD	0600a700bH
	DD	imagerel __GSHandlerCheck
	DD	0a0H
xdata	ENDS
; Function compile flags: /Odtp
_TEXT	SEGMENT
$T1 = 32
$T2 = 48
$T3 = 64
$T4 = 80
$T5 = 96
$S39$6 = 112
r$7 = 128
s$8 = 144
__$ArrayPad$ = 160
argc$ = 208
argv$ = 216
main	PROC
; File W:\cpp\void\e\e.cc
; Line 87
$LN9:
	mov	QWORD PTR [rsp+16], rdx
	mov	DWORD PTR [rsp+8], ecx
	push	rsi
	push	rdi
	sub	rsp, 184				; 000000b8H
	mov	rax, QWORD PTR __security_cookie
	xor	rax, rsp
	mov	QWORD PTR __$ArrayPad$[rsp], rax
; Line 88
	lea	rcx, OFFSET FLAT:$SG141233
	call	rxinit
; Line 91
	mov	r8d, 72					; 00000048H
	xor	edx, edx
	lea	rcx, OFFSET FLAT:?editor@?1??main@@9@9
	call	memset
; Line 93
	lea	rdx, OFFSET FLAT:$SG141234
	lea	rcx, OFFSET FLAT:?editor@?1??main@@9@9
	call	fload
; Line 95
	mov	DWORD PTR ?editor@?1??main@@9@9+16, 1
$LN4@main:
; Line 100
	mov	eax, DWORD PTR rx+5769532
	and	eax, 1
	test	eax, eax
	je	SHORT $LN5@main
	mov	ecx, 79					; 0000004fH
	call	rxtstkey
	test	eax, eax
	je	SHORT $LN5@main
; Line 102
	mov	DWORD PTR ?editor@?1??main@@9@9+16, 0
; Line 104
	call	fdlg
	mov	rdx, rax
	lea	rcx, OFFSET FLAT:?editor@?1??main@@9@9
	call	fload
$LN5@main:
; Line 107
	mov	eax, DWORD PTR rx+5769532
	and	eax, 1
	test	eax, eax
	je	SHORT $LN6@main
	mov	ecx, 83					; 00000053H
	call	rxtstkey
	test	eax, eax
	je	SHORT $LN6@main
; Line 109
	mov	DWORD PTR ?editor@?1??main@@9@9+16, 0
; Line 111
	call	fdlg
	mov	rdx, rax
	lea	rcx, OFFSET FLAT:?editor@?1??main@@9@9
	call	fsave
$LN6@main:
; Line 115
	call	mouse_poll
; Line 117
	call	rx2d
; Line 119
	lea	rcx, QWORD PTR $T4[rsp]
	call	get_window_client_rect
	lea	rcx, QWORD PTR r$7[rsp]
	mov	rdi, rcx
	mov	rsi, rax
	mov	ecx, 16
	rep movsb
; Line 121
	mov	r9d, 16
	mov	r8d, 2
	lea	rdx, QWORD PTR r$7[rsp]
	lea	rcx, QWORD PTR $T5[rsp]
	call	rect_cut
	lea	rcx, QWORD PTR s$8[rsp]
	mov	rdi, rcx
	mov	rsi, rax
	mov	ecx, 16
	rep movsb
; Line 123
	movss	xmm0, DWORD PTR __real@3f800000
	movss	DWORD PTR $S39$6[rsp], xmm0
	movss	xmm0, DWORD PTR __real@3f800000
	movss	DWORD PTR $S39$6[rsp+4], xmm0
	movss	xmm0, DWORD PTR __real@3f800000
	movss	DWORD PTR $S39$6[rsp+8], xmm0
	movss	xmm0, DWORD PTR __real@3f800000
	movss	DWORD PTR $S39$6[rsp+12], xmm0
	lea	rax, QWORD PTR $T1[rsp]
	lea	rcx, QWORD PTR $S39$6[rsp]
	mov	rdi, rax
	mov	rsi, rcx
	mov	ecx, 16
	rep movsb
	mov	r8d, DWORD PTR ?editor@?1??main@@9@9+36
	mov	edx, DWORD PTR ?editor@?1??main@@9@9+32
	lea	rcx, OFFSET FLAT:$SG141237
	call	ccformat
	lea	rcx, QWORD PTR $T2[rsp]
	lea	rdx, QWORD PTR s$8[rsp]
	mov	rdi, rcx
	mov	rsi, rdx
	mov	ecx, 16
	rep movsb
	lea	r9, QWORD PTR $T1[rsp]
	mov	r8d, 16
	mov	rdx, rax
	lea	rcx, QWORD PTR $T2[rsp]
	call	draw_text
; Line 127
	lea	rax, QWORD PTR $T3[rsp]
	lea	rcx, QWORD PTR r$7[rsp]
	mov	rdi, rax
	mov	rsi, rcx
	mov	ecx, 16
	rep movsb
	lea	rdx, OFFSET FLAT:?editor@?1??main@@9@9
	lea	rcx, QWORD PTR $T3[rsp]
	call	ewdg
; Line 131
	mov	DWORD PTR ?editor@?1??main@@9@9+16, 1
; Line 133
	call	rxtick
	test	eax, eax
	jne	$LN4@main
; Line 135
	xor	eax, eax
; Line 136
	mov	rcx, QWORD PTR __$ArrayPad$[rsp]
	xor	rcx, rsp
	call	__security_check_cookie
	add	rsp, 184				; 000000b8H
	pop	rdi
	pop	rsi
	ret	0
main	ENDP
_TEXT	ENDS
; Function compile flags: /Odtp
_TEXT	SEGMENT
OpenFileName$ = 32
DirBuff$ = 192
__$ArrayPad$ = 464
fdlg	PROC
; File W:\cpp\void\e\e.cc
; Line 63
$LN3:
	sub	rsp, 488				; 000001e8H
	mov	rax, QWORD PTR __security_cookie
	xor	rax, rsp
	mov	QWORD PTR __$ArrayPad$[rsp], rax
; Line 65
	lea	rdx, QWORD PTR DirBuff$[rsp]
	mov	ecx, 260				; 00000104H
	call	QWORD PTR __imp_GetCurrentDirectoryA
; Line 68
	mov	r8d, 152				; 00000098H
	xor	edx, edx
	lea	rcx, QWORD PTR OpenFileName$[rsp]
	call	memset
; Line 69
	mov	DWORD PTR OpenFileName$[rsp], 152	; 00000098H
; Line 70
	mov	QWORD PTR OpenFileName$[rsp+8], 0
; Line 71
	mov	edx, 1
	mov	ecx, 260				; 00000104H
	call	ccstatic_alloc
	mov	QWORD PTR OpenFileName$[rsp+48], rax
; Line 72
	mov	DWORD PTR OpenFileName$[rsp+56], 260	; 00000104H
; Line 73
	lea	rax, OFFSET FLAT:$SG141217
	mov	QWORD PTR OpenFileName$[rsp+24], rax
; Line 74
	mov	DWORD PTR OpenFileName$[rsp+44], 1
; Line 75
	mov	QWORD PTR OpenFileName$[rsp+64], 0
; Line 76
	mov	DWORD PTR OpenFileName$[rsp+72], 0
; Line 77
	mov	QWORD PTR OpenFileName$[rsp+80], 0
; Line 78
	mov	DWORD PTR OpenFileName$[rsp+96], 6144	; 00001800H
; Line 79
	lea	rcx, QWORD PTR OpenFileName$[rsp]
	call	QWORD PTR __imp_GetOpenFileNameA
; Line 81
	lea	rcx, QWORD PTR DirBuff$[rsp]
	call	QWORD PTR __imp_SetCurrentDirectoryA
; Line 83
	mov	rax, QWORD PTR OpenFileName$[rsp+48]
; Line 84
	mov	rcx, QWORD PTR __$ArrayPad$[rsp]
	xor	rcx, rsp
	call	__security_check_cookie
	add	rsp, 488				; 000001e8H
	ret	0
fdlg	ENDP
_TEXT	ENDS
; Function compile flags: /Odtp
_TEXT	SEGMENT
the_string$ = 48
copy_string PROC
; File W:\cpp\void\e\e.cc
; Line 56
$LN4:
	mov	QWORD PTR [rsp+8], rcx
	sub	rsp, 40					; 00000028H
; Line 57
	cmp	QWORD PTR the_string$[rsp], 0
	jne	SHORT $LN2@copy_strin
	xor	eax, eax
	jmp	SHORT $LN1@copy_strin
$LN2@copy_strin:
; Line 59
	mov	rcx, QWORD PTR the_string$[rsp]
	call	strlen
	mov	edx, eax
	mov	rcx, QWORD PTR the_string$[rsp]
	call	copy_string_ex
$LN1@copy_strin:
; Line 60
	add	rsp, 40					; 00000028H
	ret	0
copy_string ENDP
_TEXT	ENDS
; Function compile flags: /Odtp
_TEXT	SEGMENT
the_result$ = 48
tv69 = 56
$T1 = 64
$T2 = 96
the_string$ = 160
the_length$ = 168
copy_string_ex PROC
; File W:\cpp\void\e\e.cc
; Line 42
$LN5:
	mov	DWORD PTR [rsp+16], edx
	mov	QWORD PTR [rsp+8], rcx
	push	rsi
	push	rdi
	sub	rsp, 136				; 00000088H
; Line 43
	cmp	QWORD PTR the_string$[rsp], 0
	je	SHORT $LN3@copy_strin
	cmp	DWORD PTR the_length$[rsp], 0
	jne	SHORT $LN2@copy_strin
$LN3@copy_strin:
; Line 44
	xor	eax, eax
	jmp	$LN1@copy_strin
$LN2@copy_strin:
; Line 46
	mov	eax, DWORD PTR the_length$[rsp]
	inc	eax
	mov	eax, eax
	mov	QWORD PTR tv69[rsp], rax
	lea	rcx, OFFSET FLAT:$SG141203
	mov	QWORD PTR [rsp+32], rcx
	mov	r9d, 46					; 0000002eH
	lea	r8, OFFSET FLAT:$SG141204
	mov	edx, 212				; 000000d4H
	lea	rcx, QWORD PTR $T2[rsp]
	call	cccaller
	lea	rcx, QWORD PTR $T1[rsp]
	mov	rdi, rcx
	mov	rsi, rax
	mov	ecx, 32					; 00000020H
	rep movsb
	xor	r8d, r8d
	mov	rax, QWORD PTR tv69[rsp]
	mov	rdx, rax
	lea	rcx, QWORD PTR $T1[rsp]
	call	ccuserallocator_
	mov	QWORD PTR the_result$[rsp], rax
; Line 47
	mov	eax, DWORD PTR the_length$[rsp]
	inc	eax
	mov	eax, eax
	mov	r8d, eax
	mov	rdx, QWORD PTR the_string$[rsp]
	mov	rcx, QWORD PTR the_result$[rsp]
	call	memcpy
; Line 48
	mov	eax, DWORD PTR the_length$[rsp]
	mov	rcx, QWORD PTR the_result$[rsp]
	mov	BYTE PTR [rcx+rax], 0
; Line 50
	mov	rax, QWORD PTR the_result$[rsp]
$LN1@copy_strin:
; Line 51
	add	rsp, 136				; 00000088H
	pop	rdi
	pop	rsi
	ret	0
copy_string_ex ENDP
_TEXT	ENDS
; Function compile flags: /Odtp
_TEXT	SEGMENT
i$1 = 48
in_rect$ = 52
tv231 = 56
tv88 = 64
tv144 = 72
tv206 = 80
the_line$2 = 88
tv395 = 96
$T3 = 112
$T4 = 128
$T5 = 144
$T6 = 160
$T7 = 176
$T8 = 192
$T9 = 208
$T10 = 224
$T11 = 240
$S35$ = 256
$S36$12 = 272
$S37$ = 288
color$ = 304
$S38$ = 320
__$ArrayPad$ = 336
rect$ = 384
widget$ = 392
ewdg	PROC
; File W:\cpp\void\e\e.h
; Line 316
$LN39:
	mov	QWORD PTR [rsp+16], rdx
	mov	QWORD PTR [rsp+8], rcx
	push	rsi
	push	rdi
	sub	rsp, 360				; 00000168H
	mov	rax, QWORD PTR __security_cookie
	xor	rax, rsp
	mov	QWORD PTR __$ArrayPad$[rsp], rax
; Line 317
	lea	rax, QWORD PTR $T3[rsp]
	mov	rdi, rax
	mov	rsi, QWORD PTR rect$[rsp]
	mov	ecx, 16
	rep movsb
	lea	rcx, QWORD PTR $T3[rsp]
	call	cursor_in_rect
	mov	DWORD PTR in_rect$[rsp], eax
; Line 319
	xor	ecx, ecx
	call	is_click_enter
	test	eax, eax
	je	SHORT $LN5@ewdg
; Line 321
	cmp	DWORD PTR in_rect$[rsp], 0
	je	SHORT $LN6@ewdg
; Line 323
	mov	rax, QWORD PTR widget$[rsp]
	mov	DWORD PTR [rax+16], 1
$LN6@ewdg:
$LN5@ewdg:
; Line 327
	mov	rax, QWORD PTR widget$[rsp]
	cmp	DWORD PTR [rax+16], 0
	je	$LN7@ewdg
; Line 329
	mov	ecx, 4
	call	rxtstkey
	test	eax, eax
	je	$LN8@ewdg
; Line 330
	mov	eax, DWORD PTR rx+5769532
	and	eax, 1
	test	eax, eax
	je	SHORT $LN10@ewdg
; Line 332
	mov	rax, QWORD PTR widget$[rsp]
	mov	eax, DWORD PTR [rax+40]
	dec	eax
	mov	rcx, QWORD PTR widget$[rsp]
	mov	DWORD PTR [rcx+40], eax
; Line 333
	mov	rax, QWORD PTR widget$[rsp]
	cmp	QWORD PTR [rax+48], 0
	je	SHORT $LN33@ewdg
	mov	rax, QWORD PTR widget$[rsp]
	mov	rax, QWORD PTR [rax+48]
	mov	rax, QWORD PTR [rax-8]
	mov	QWORD PTR tv88[rsp], rax
	jmp	SHORT $LN34@ewdg
$LN33@ewdg:
	mov	QWORD PTR tv88[rsp], 0
$LN34@ewdg:
	mov	eax, DWORD PTR tv88[rsp]
	dec	eax
	mov	r8d, eax
	xor	edx, edx
	mov	rax, QWORD PTR widget$[rsp]
	mov	ecx, DWORD PTR [rax+40]
	call	rxclampi
	mov	rcx, QWORD PTR widget$[rsp]
	mov	DWORD PTR [rcx+40], eax
; Line 334
	jmp	SHORT $LN11@ewdg
$LN10@ewdg:
; Line 336
	mov	edx, -1
	mov	rcx, QWORD PTR widget$[rsp]
	call	emovcury
$LN11@ewdg:
; Line 338
	jmp	$LN9@ewdg
$LN8@ewdg:
; Line 339
	mov	ecx, 5
	call	rxtstkey
	test	eax, eax
	je	$LN12@ewdg
; Line 341
	mov	eax, DWORD PTR rx+5769532
	and	eax, 1
	test	eax, eax
	je	SHORT $LN14@ewdg
; Line 343
	mov	rax, QWORD PTR widget$[rsp]
	mov	eax, DWORD PTR [rax+40]
	inc	eax
	mov	rcx, QWORD PTR widget$[rsp]
	mov	DWORD PTR [rcx+40], eax
; Line 344
	mov	rax, QWORD PTR widget$[rsp]
	cmp	QWORD PTR [rax+48], 0
	je	SHORT $LN35@ewdg
	mov	rax, QWORD PTR widget$[rsp]
	mov	rax, QWORD PTR [rax+48]
	mov	rax, QWORD PTR [rax-8]
	mov	QWORD PTR tv144[rsp], rax
	jmp	SHORT $LN36@ewdg
$LN35@ewdg:
	mov	QWORD PTR tv144[rsp], 0
$LN36@ewdg:
	mov	eax, DWORD PTR tv144[rsp]
	dec	eax
	mov	r8d, eax
	xor	edx, edx
	mov	rax, QWORD PTR widget$[rsp]
	mov	ecx, DWORD PTR [rax+40]
	call	rxclampi
	mov	rcx, QWORD PTR widget$[rsp]
	mov	DWORD PTR [rcx+40], eax
; Line 345
	jmp	SHORT $LN15@ewdg
$LN14@ewdg:
; Line 347
	mov	edx, 1
	mov	rcx, QWORD PTR widget$[rsp]
	call	emovcury
$LN15@ewdg:
; Line 349
	jmp	$LN13@ewdg
$LN12@ewdg:
; Line 350
	mov	ecx, 2
	call	rxtstkey
	test	eax, eax
	je	SHORT $LN16@ewdg
; Line 351
	mov	eax, DWORD PTR rx+5769532
	and	eax, 1
	test	eax, eax
	je	SHORT $LN18@ewdg
; Line 353
	jmp	SHORT $LN19@ewdg
$LN18@ewdg:
; Line 355
	mov	edx, -1
	mov	rcx, QWORD PTR widget$[rsp]
	call	emovcurx
$LN19@ewdg:
; Line 357
	jmp	$LN17@ewdg
$LN16@ewdg:
; Line 358
	mov	ecx, 3
	call	rxtstkey
	test	eax, eax
	je	SHORT $LN20@ewdg
; Line 360
	mov	eax, DWORD PTR rx+5769532
	and	eax, 1
	test	eax, eax
	je	SHORT $LN22@ewdg
; Line 362
	jmp	SHORT $LN23@ewdg
$LN22@ewdg:
; Line 364
	mov	edx, 1
	mov	rcx, QWORD PTR widget$[rsp]
	call	emovcurx
$LN23@ewdg:
; Line 366
	jmp	$LN21@ewdg
$LN20@ewdg:
; Line 367
	mov	ecx, 11
	call	rxtstkey
	test	eax, eax
	je	SHORT $LN24@ewdg
; Line 368
	mov	rcx, QWORD PTR widget$[rsp]
	call	edelchar
; Line 369
	jmp	$LN25@ewdg
$LN24@ewdg:
; Line 370
	mov	ecx, 10
	call	rxtstkey
	test	eax, eax
	je	SHORT $LN26@ewdg
; Line 371
	mov	rcx, QWORD PTR widget$[rsp]
	call	ecurloc
	test	eax, eax
	je	SHORT $LN28@ewdg
; Line 372
	mov	edx, -1
	mov	rcx, QWORD PTR widget$[rsp]
	call	emovcurx
; Line 373
	mov	rcx, QWORD PTR widget$[rsp]
	call	edelchar
$LN28@ewdg:
; Line 375
	jmp	SHORT $LN27@ewdg
$LN26@ewdg:
; Line 376
	mov	ecx, 1
	call	rxtstkey
	test	eax, eax
	je	SHORT $LN29@ewdg
; Line 377
	mov	edx, 13
	mov	rcx, QWORD PTR widget$[rsp]
	call	eputchar
; Line 378
	mov	edx, 10
	mov	rcx, QWORD PTR widget$[rsp]
	call	eputchar
; Line 379
	mov	edx, 1
	mov	rcx, QWORD PTR widget$[rsp]
	call	emovcurx
; Line 380
	jmp	SHORT $LN30@ewdg
$LN29@ewdg:
; Line 381
	call	rxchr
	test	eax, eax
	je	SHORT $LN31@ewdg
; Line 382
	call	rxchr
	mov	edx, eax
	mov	rcx, QWORD PTR widget$[rsp]
	call	eputchar
; Line 383
	mov	edx, 1
	mov	rcx, QWORD PTR widget$[rsp]
	call	emovcurx
$LN31@ewdg:
$LN30@ewdg:
$LN27@ewdg:
$LN25@ewdg:
$LN21@ewdg:
$LN17@ewdg:
$LN13@ewdg:
$LN9@ewdg:
$LN7@ewdg:
; Line 392
	movss	xmm0, DWORD PTR __real@3d909091
	movss	DWORD PTR $S35$[rsp], xmm0
	movss	xmm0, DWORD PTR __real@3d909091
	movss	DWORD PTR $S35$[rsp+4], xmm0
	movss	xmm0, DWORD PTR __real@3d909091
	movss	DWORD PTR $S35$[rsp+8], xmm0
	movss	xmm0, DWORD PTR __real@3f800000
	movss	DWORD PTR $S35$[rsp+12], xmm0
	lea	rax, QWORD PTR color$[rsp]
	lea	rcx, QWORD PTR $S35$[rsp]
	mov	rdi, rax
	mov	rsi, rcx
	mov	ecx, 16
	rep movsb
; Line 394
	lea	rax, QWORD PTR $T4[rsp]
	lea	rcx, QWORD PTR color$[rsp]
	mov	rdi, rax
	mov	rsi, rcx
	mov	ecx, 16
	rep movsb
	lea	rax, QWORD PTR $T5[rsp]
	mov	rdi, rax
	mov	rsi, QWORD PTR rect$[rsp]
	mov	ecx, 16
	rep movsb
	lea	rdx, QWORD PTR $T4[rsp]
	lea	rcx, QWORD PTR $T5[rsp]
	call	draw_rect
; Line 396
	mov	DWORD PTR i$1[rsp], 0
	jmp	SHORT $LN4@ewdg
$LN2@ewdg:
	mov	eax, DWORD PTR i$1[rsp]
	inc	eax
	mov	DWORD PTR i$1[rsp], eax
$LN4@ewdg:
	mov	rax, QWORD PTR widget$[rsp]
	cmp	QWORD PTR [rax+48], 0
	je	SHORT $LN37@ewdg
	mov	rax, QWORD PTR widget$[rsp]
	mov	rax, QWORD PTR [rax+48]
	mov	rax, QWORD PTR [rax-8]
	mov	QWORD PTR tv206[rsp], rax
	jmp	SHORT $LN38@ewdg
$LN37@ewdg:
	mov	QWORD PTR tv206[rsp], 0
$LN38@ewdg:
	mov	rax, QWORD PTR widget$[rsp]
	mov	eax, DWORD PTR [rax+40]
	mov	ecx, DWORD PTR tv206[rsp]
	sub	ecx, eax
	mov	eax, ecx
	mov	edx, 32					; 00000020H
	mov	ecx, eax
	call	rxmini
	cmp	DWORD PTR i$1[rsp], eax
	jge	$LN3@ewdg
; Line 398
	mov	rax, QWORD PTR widget$[rsp]
	movsxd	rax, DWORD PTR [rax+40]
	mov	rcx, QWORD PTR widget$[rsp]
	mov	rcx, QWORD PTR [rcx+48]
	lea	rax, QWORD PTR [rcx+rax*8]
	movsxd	rcx, DWORD PTR i$1[rsp]
	lea	rax, QWORD PTR [rax+rcx*8]
	mov	QWORD PTR the_line$2[rsp], rax
; Line 400
	movss	xmm0, DWORD PTR __real@3f40c0c1
	movss	DWORD PTR $S36$12[rsp], xmm0
	movss	xmm0, DWORD PTR __real@3f40c0c1
	movss	DWORD PTR $S36$12[rsp+4], xmm0
	movss	xmm0, DWORD PTR __real@3f40c0c1
	movss	DWORD PTR $S36$12[rsp+8], xmm0
	movss	xmm0, DWORD PTR __real@3f800000
	movss	DWORD PTR $S36$12[rsp+12], xmm0
	mov	rax, QWORD PTR the_line$2[rsp]
	movsxd	rax, DWORD PTR [rax]
	mov	rcx, QWORD PTR widget$[rsp]
	add	rax, QWORD PTR [rcx+56]
	mov	ecx, DWORD PTR i$1[rsp]
	inc	ecx
	imul	ecx, ecx, -32				; ffffffffffffffe0H
	mov	rdx, QWORD PTR rect$[rsp]
	add	ecx, DWORD PTR [rdx+12]
	mov	DWORD PTR tv231[rsp], ecx
	lea	rdx, QWORD PTR $T6[rsp]
	lea	rdi, QWORD PTR $S36$12[rsp]
	mov	QWORD PTR tv395[rsp], rdi
	mov	rdi, rdx
	mov	rdx, QWORD PTR tv395[rsp]
	mov	rsi, rdx
	mov	ecx, 16
	rep movsb
	mov	QWORD PTR [rsp+40], rax
	mov	rax, QWORD PTR the_line$2[rsp]
	mov	eax, DWORD PTR [rax+4]
	mov	DWORD PTR [rsp+32], eax
	mov	r9d, 32					; 00000020H
	mov	eax, DWORD PTR tv231[rsp]
	mov	r8d, eax
	mov	rax, QWORD PTR rect$[rsp]
	mov	edx, DWORD PTR [rax]
	lea	rcx, QWORD PTR $T6[rsp]
	call	rxdraw_text_ex
; Line 404
	jmp	$LN2@ewdg
$LN3@ewdg:
; Line 406
	xorps	xmm0, xmm0
	movss	DWORD PTR $S37$[rsp], xmm0
	movss	xmm0, DWORD PTR __real@3f800000
	movss	DWORD PTR $S37$[rsp+4], xmm0
	xorps	xmm0, xmm0
	movss	DWORD PTR $S37$[rsp+8], xmm0
	movss	xmm0, DWORD PTR __real@3f800000
	movss	DWORD PTR $S37$[rsp+12], xmm0
	lea	rax, QWORD PTR color$[rsp]
	lea	rcx, QWORD PTR $S37$[rsp]
	mov	rdi, rax
	mov	rsi, rcx
	mov	ecx, 16
	rep movsb
; Line 407
	movsd	xmm0, QWORD PTR rx+664
	divsd	xmm0, QWORD PTR __real@3fd0000000000000
	mulsd	xmm0, QWORD PTR __real@400921fb60000000
	call	sin
	movsd	xmm1, QWORD PTR __real@3fe0000000000000
	addsd	xmm1, xmm0
	movaps	xmm0, xmm1
	mulsd	xmm0, QWORD PTR __real@3fe0000000000000
	movsd	xmm2, QWORD PTR __real@3ff0000000000000
	movsd	xmm1, QWORD PTR __real@3fa999999999999a
	call	rxclamp
	cvtsd2ss xmm0, xmm0
	movss	DWORD PTR color$[rsp+12], xmm0
; Line 409
	lea	rax, QWORD PTR $T8[rsp]
	lea	rcx, QWORD PTR color$[rsp]
	mov	rdi, rax
	mov	rsi, rcx
	mov	ecx, 16
	rep movsb
	lea	rax, QWORD PTR $T7[rsp]
	mov	rdi, rax
	mov	rsi, QWORD PTR rect$[rsp]
	mov	ecx, 16
	rep movsb
	lea	r8, QWORD PTR $T7[rsp]
	mov	rdx, QWORD PTR widget$[rsp]
	lea	rcx, QWORD PTR $T11[rsp]
	call	currec
	lea	rcx, QWORD PTR $T9[rsp]
	mov	rdi, rcx
	mov	rsi, rax
	mov	ecx, 16
	rep movsb
	lea	rdx, QWORD PTR $T8[rsp]
	lea	rcx, QWORD PTR $T9[rsp]
	call	draw_rect
; Line 411
	mov	DWORD PTR $S38$[rsp], 0
	mov	DWORD PTR $S38$[rsp+4], 0
	mov	DWORD PTR $S38$[rsp+8], 65535		; 0000ffffH
	mov	DWORD PTR $S38$[rsp+12], 65535		; 0000ffffH
	lea	rax, QWORD PTR $T10[rsp]
	lea	rcx, QWORD PTR $S38$[rsp]
	mov	rdi, rax
	mov	rsi, rcx
	mov	ecx, 16
	rep movsb
	lea	rcx, QWORD PTR $T10[rsp]
	call	set_clip_rect
; Line 412
	xor	eax, eax
; Line 413
	mov	rcx, QWORD PTR __$ArrayPad$[rsp]
	xor	rcx, rsp
	call	__security_check_cookie
	add	rsp, 360				; 00000168H
	pop	rdi
	pop	rsi
	ret	0
ewdg	ENDP
_TEXT	ENDS
; Function compile flags: /Odtp
_TEXT	SEGMENT
length$1 = 32
file$2 = 40
widget$ = 64
name$ = 72
fsave	PROC
; File W:\cpp\void\e\e.h
; Line 302
$LN4:
	mov	QWORD PTR [rsp+16], rdx
	mov	QWORD PTR [rsp+8], rcx
	sub	rsp, 56					; 00000038H
; Line 303
	cmp	QWORD PTR name$[rsp], 0
	je	SHORT $LN2@fsave
	mov	rcx, QWORD PTR name$[rsp]
	call	strlen
	test	rax, rax
	je	SHORT $LN2@fsave
; Line 305
	lea	rdx, OFFSET FLAT:$SG141137
	mov	rcx, QWORD PTR name$[rsp]
	call	ccopenfile
	mov	QWORD PTR file$2[rsp], rax
; Line 307
	mov	rax, QWORD PTR widget$[rsp]
	mov	eax, DWORD PTR [rax+64]
	mov	DWORD PTR length$1[rsp], eax
; Line 308
	mov	rax, QWORD PTR widget$[rsp]
	mov	r9, QWORD PTR [rax+56]
	mov	r8d, DWORD PTR length$1[rsp]
	xor	edx, edx
	mov	rcx, QWORD PTR file$2[rsp]
	call	ccpushfile
; Line 310
	mov	rcx, QWORD PTR file$2[rsp]
	call	ccclosefile
$LN2@fsave:
; Line 312
	add	rsp, 56					; 00000038H
	ret	0
fsave	ENDP
_TEXT	ENDS
; Function compile flags: /Odtp
_TEXT	SEGMENT
length$1 = 32
tv80 = 40
memory$2 = 48
buffer$3 = 56
file$4 = 64
tv90 = 72
widget$ = 96
name$ = 104
fload	PROC
; File W:\cpp\void\e\e.h
; Line 275
$LN7:
	mov	QWORD PTR [rsp+16], rdx
	mov	QWORD PTR [rsp+8], rcx
	sub	rsp, 88					; 00000058H
; Line 276
	cmp	QWORD PTR name$[rsp], 0
	je	$LN2@fload
	mov	rcx, QWORD PTR name$[rsp]
	call	strlen
	test	rax, rax
	je	$LN2@fload
; Line 278
	lea	rdx, OFFSET FLAT:$SG141126
	mov	rcx, QWORD PTR name$[rsp]
	call	ccopenfile
	mov	QWORD PTR file$4[rsp], rax
; Line 280
	mov	DWORD PTR length$1[rsp], 0
; Line 281
	lea	r8, QWORD PTR length$1[rsp]
	xor	edx, edx
	mov	rcx, QWORD PTR file$4[rsp]
	call	ccpullfile
	mov	QWORD PTR memory$2[rsp], rax
; Line 283
	cmp	QWORD PTR memory$2[rsp], 0
	je	$LN3@fload
; Line 285
	mov	rax, QWORD PTR widget$[rsp]
	cmp	QWORD PTR [rax+56], 0
	je	SHORT $LN5@fload
	mov	rax, QWORD PTR widget$[rsp]
	mov	rax, QWORD PTR [rax+56]
	sub	rax, 40					; 00000028H
	mov	QWORD PTR tv80[rsp], rax
	jmp	SHORT $LN6@fload
$LN5@fload:
	mov	QWORD PTR tv80[rsp], 0
$LN6@fload:
	mov	rcx, QWORD PTR tv80[rsp]
	call	ccdlbdel_
; Line 286
	mov	rax, QWORD PTR widget$[rsp]
	mov	QWORD PTR [rax+56], 0
; Line 288
	mov	eax, DWORD PTR length$1[rsp]
	mov	ecx, DWORD PTR length$1[rsp]
	mov	rdx, QWORD PTR widget$[rsp]
	add	rdx, 56					; 00000038H
	mov	QWORD PTR tv90[rsp], rdx
	mov	r9d, eax
	mov	r8d, ecx
	mov	edx, 1
	mov	rax, QWORD PTR tv90[rsp]
	mov	rcx, rax
	call	ccdlbadd_
	mov	rcx, QWORD PTR widget$[rsp]
	add	rax, QWORD PTR [rcx+56]
	mov	QWORD PTR buffer$3[rsp], rax
; Line 289
	mov	eax, DWORD PTR length$1[rsp]
	mov	r8d, eax
	mov	rdx, QWORD PTR memory$2[rsp]
	mov	rcx, QWORD PTR buffer$3[rsp]
	call	memcpy
; Line 291
	mov	rax, QWORD PTR widget$[rsp]
	mov	ecx, DWORD PTR length$1[rsp]
	mov	DWORD PTR [rax+64], ecx
; Line 293
	mov	r8, QWORD PTR buffer$3[rsp]
	mov	edx, DWORD PTR length$1[rsp]
	mov	rcx, QWORD PTR widget$[rsp]
	call	erecache
$LN3@fload:
$LN2@fload:
; Line 296
	add	rsp, 88					; 00000058H
	ret	0
fload	ENDP
_TEXT	ENDS
; Function compile flags: /Odtp
_TEXT	SEGMENT
loc$ = 32
mov$ = 36
mem$ = 40
tv89 = 48
widget$ = 80
edelchar PROC
; File W:\cpp\void\e\e.h
; Line 257
$LN5:
	mov	QWORD PTR [rsp+8], rcx
	sub	rsp, 72					; 00000048H
; Line 258
	mov	rcx, QWORD PTR widget$[rsp]
	call	ecurloc
	mov	DWORD PTR loc$[rsp], eax
; Line 260
	movsxd	rax, DWORD PTR loc$[rsp]
	mov	rcx, QWORD PTR widget$[rsp]
	mov	rcx, QWORD PTR [rcx+56]
	add	rcx, rax
	mov	rax, rcx
	mov	QWORD PTR mem$[rsp], rax
; Line 261
	mov	rax, QWORD PTR mem$[rsp]
	mov	BYTE PTR [rax], 0
; Line 263
	mov	rcx, QWORD PTR widget$[rsp]
	call	buflen
	sub	eax, DWORD PTR loc$[rsp]
	dec	eax
	mov	DWORD PTR mov$[rsp], eax
; Line 264
	movsxd	rax, DWORD PTR mov$[rsp]
	mov	rcx, QWORD PTR mem$[rsp]
	inc	rcx
	mov	r8, rax
	mov	rdx, rcx
	mov	rcx, QWORD PTR mem$[rsp]
	call	memmove
; Line 266
	mov	rax, QWORD PTR widget$[rsp]
	mov	eax, DWORD PTR [rax+64]
	dec	eax
	mov	rcx, QWORD PTR widget$[rsp]
	mov	DWORD PTR [rcx+64], eax
; Line 269
	mov	rax, QWORD PTR widget$[rsp]
	cmp	QWORD PTR [rax+56], 0
	je	SHORT $LN3@edelchar
	mov	rax, QWORD PTR widget$[rsp]
	mov	rax, QWORD PTR [rax+56]
	mov	rax, QWORD PTR [rax-8]
	mov	QWORD PTR tv89[rsp], rax
	jmp	SHORT $LN4@edelchar
$LN3@edelchar:
	mov	QWORD PTR tv89[rsp], 0
$LN4@edelchar:
	mov	rax, QWORD PTR widget$[rsp]
	mov	r8, QWORD PTR [rax+56]
	mov	edx, DWORD PTR tv89[rsp]
	mov	rcx, QWORD PTR widget$[rsp]
	call	erecache
; Line 270
	add	rsp, 72					; 00000048H
	ret	0
edelchar ENDP
_TEXT	ENDS
; Function compile flags: /Odtp
_TEXT	SEGMENT
loc$ = 32
mov$ = 36
mem$ = 40
tv83 = 48
widget$ = 80
chr$ = 88
eputchar PROC
; File W:\cpp\void\e\e.h
; Line 238
$LN5:
	mov	DWORD PTR [rsp+16], edx
	mov	QWORD PTR [rsp+8], rcx
	sub	rsp, 72					; 00000048H
; Line 239
	mov	rax, QWORD PTR widget$[rsp]
	add	rax, 56					; 00000038H
	mov	r9d, 1
	mov	r8d, 1
	mov	edx, 1
	mov	rcx, rax
	call	ccdlbadd_
; Line 240
	mov	rax, QWORD PTR widget$[rsp]
	mov	eax, DWORD PTR [rax+64]
	inc	eax
	mov	rcx, QWORD PTR widget$[rsp]
	mov	DWORD PTR [rcx+64], eax
; Line 242
	mov	rcx, QWORD PTR widget$[rsp]
	call	ecurloc
	mov	DWORD PTR loc$[rsp], eax
; Line 243
	movsxd	rax, DWORD PTR loc$[rsp]
	mov	rcx, QWORD PTR widget$[rsp]
	mov	rcx, QWORD PTR [rcx+56]
	add	rcx, rax
	mov	rax, rcx
	mov	QWORD PTR mem$[rsp], rax
; Line 245
	mov	rax, QWORD PTR widget$[rsp]
	cmp	QWORD PTR [rax+56], 0
	je	SHORT $LN3@eputchar
	mov	rax, QWORD PTR widget$[rsp]
	mov	rax, QWORD PTR [rax+56]
	mov	rax, QWORD PTR [rax-8]
	mov	QWORD PTR tv83[rsp], rax
	jmp	SHORT $LN4@eputchar
$LN3@eputchar:
	mov	QWORD PTR tv83[rsp], 0
$LN4@eputchar:
	mov	eax, DWORD PTR loc$[rsp]
	mov	ecx, DWORD PTR tv83[rsp]
	sub	ecx, eax
	mov	eax, ecx
	dec	eax
	mov	DWORD PTR mov$[rsp], eax
; Line 246
	movsxd	rax, DWORD PTR mov$[rsp]
	mov	rcx, QWORD PTR mem$[rsp]
	inc	rcx
	mov	r8, rax
	mov	rdx, QWORD PTR mem$[rsp]
	call	memmove
; Line 248
	mov	rax, QWORD PTR mem$[rsp]
	movzx	ecx, BYTE PTR chr$[rsp]
	mov	BYTE PTR [rax], cl
; Line 251
	mov	rax, QWORD PTR widget$[rsp]
	mov	r8, QWORD PTR [rax+56]
	mov	rax, QWORD PTR widget$[rsp]
	mov	edx, DWORD PTR [rax+64]
	mov	rcx, QWORD PTR widget$[rsp]
	call	erecache
; Line 252
	add	rsp, 72					; 00000048H
	ret	0
eputchar ENDP
_TEXT	ENDS
; Function compile flags: /Odtp
_TEXT	SEGMENT
tv74 = 32
tv88 = 40
$T1 = 48
$T2 = 80
cur$ = 104
__$ArrayPad$ = 128
wdg$ = 176
mov$ = 184
emovcury PROC
; File W:\cpp\void\e\e.h
; Line 221
$LN6:
	mov	DWORD PTR [rsp+16], edx
	mov	QWORD PTR [rsp+8], rcx
	push	rsi
	push	rdi
	sub	rsp, 152				; 00000098H
	mov	rax, QWORD PTR __security_cookie
	xor	rax, rsp
	mov	QWORD PTR __$ArrayPad$[rsp], rax
; Line 222
	mov	rdx, QWORD PTR wdg$[rsp]
	lea	rcx, QWORD PTR $T2[rsp]
	call	egetcur
	lea	rcx, QWORD PTR cur$[rsp]
	mov	rdi, rcx
	mov	rsi, rax
	mov	ecx, 20
	rep movsb
; Line 224
	mov	rax, QWORD PTR wdg$[rsp]
	cmp	QWORD PTR [rax+48], 0
	je	SHORT $LN4@emovcury
	mov	rax, QWORD PTR wdg$[rsp]
	mov	rax, QWORD PTR [rax+48]
	mov	rax, QWORD PTR [rax-8]
	mov	QWORD PTR tv74[rsp], rax
	jmp	SHORT $LN5@emovcury
$LN4@emovcury:
	mov	QWORD PTR tv74[rsp], 0
$LN5@emovcury:
	mov	eax, DWORD PTR mov$[rsp]
	mov	ecx, DWORD PTR cur$[rsp+16]
	add	ecx, eax
	mov	eax, ecx
	mov	ecx, DWORD PTR tv74[rsp]
	dec	ecx
	cmp	eax, ecx
	ja	$LN2@emovcury
	mov	eax, DWORD PTR mov$[rsp]
	mov	ecx, DWORD PTR cur$[rsp+16]
	add	ecx, eax
	mov	eax, ecx
	test	eax, eax
	jl	SHORT $LN2@emovcury
; Line 227
	mov	eax, DWORD PTR mov$[rsp]
	mov	ecx, DWORD PTR cur$[rsp+16]
	add	ecx, eax
	mov	eax, ecx
	mov	DWORD PTR cur$[rsp+16], eax
; Line 228
	mov	edx, DWORD PTR cur$[rsp+16]
	mov	rcx, QWORD PTR wdg$[rsp]
	call	egetlen
	cvtsi2sd xmm0, eax
	cvtsi2sd xmm1, DWORD PTR cur$[rsp+12]
	movsd	QWORD PTR tv88[rsp], xmm1
	movaps	xmm2, xmm0
	xorps	xmm1, xmm1
	movsd	xmm0, QWORD PTR tv88[rsp]
	call	rxclamp
	cvttsd2si eax, xmm0
	mov	DWORD PTR cur$[rsp+12], eax
; Line 230
	lea	rax, QWORD PTR $T1[rsp]
	lea	rcx, QWORD PTR cur$[rsp]
	mov	rdi, rax
	mov	rsi, rcx
	mov	ecx, 20
	rep movsb
	lea	rdx, QWORD PTR $T1[rsp]
	mov	rcx, QWORD PTR wdg$[rsp]
	call	esetcur
$LN2@emovcury:
; Line 232
	mov	rcx, QWORD PTR __$ArrayPad$[rsp]
	xor	rcx, rsp
	call	__security_check_cookie
	add	rsp, 152				; 00000098H
	pop	rdi
	pop	rsi
	ret	0
emovcury ENDP
_TEXT	ENDS
; Function compile flags: /Odtp
_TEXT	SEGMENT
tv68 = 32
tv79 = 40
$T1 = 48
$T2 = 80
cur$ = 104
__$ArrayPad$ = 128
wdg$ = 176
mov$ = 184
emovcurx PROC
; File W:\cpp\void\e\e.h
; Line 191
$LN11:
	mov	DWORD PTR [rsp+16], edx
	mov	QWORD PTR [rsp+8], rcx
	push	rsi
	push	rdi
	sub	rsp, 152				; 00000098H
	mov	rax, QWORD PTR __security_cookie
	xor	rax, rsp
	mov	QWORD PTR __$ArrayPad$[rsp], rax
; Line 192
	mov	rdx, QWORD PTR wdg$[rsp]
	lea	rcx, QWORD PTR $T2[rsp]
	call	egetcur
	lea	rcx, QWORD PTR cur$[rsp]
	mov	rdi, rcx
	mov	rsi, rax
	mov	ecx, 20
	rep movsb
; Line 194
	mov	eax, DWORD PTR mov$[rsp]
	mov	ecx, DWORD PTR cur$[rsp+12]
	add	ecx, eax
	mov	eax, ecx
	mov	DWORD PTR tv68[rsp], eax
	mov	edx, DWORD PTR cur$[rsp+16]
	mov	rcx, QWORD PTR wdg$[rsp]
	call	egetlen
	mov	ecx, DWORD PTR tv68[rsp]
	cmp	ecx, eax
	jle	SHORT $LN2@emovcurx
; Line 196
	mov	rax, QWORD PTR wdg$[rsp]
	cmp	QWORD PTR [rax+48], 0
	je	SHORT $LN9@emovcurx
	mov	rax, QWORD PTR wdg$[rsp]
	mov	rax, QWORD PTR [rax+48]
	mov	rax, QWORD PTR [rax-8]
	mov	QWORD PTR tv79[rsp], rax
	jmp	SHORT $LN10@emovcurx
$LN9@emovcurx:
	mov	QWORD PTR tv79[rsp], 0
$LN10@emovcurx:
	mov	eax, DWORD PTR cur$[rsp+16]
	inc	eax
	mov	ecx, DWORD PTR tv79[rsp]
	dec	ecx
	cmp	eax, ecx
	ja	SHORT $LN4@emovcurx
; Line 198
	mov	eax, DWORD PTR cur$[rsp+16]
	inc	eax
	mov	DWORD PTR cur$[rsp+16], eax
; Line 199
	mov	DWORD PTR cur$[rsp+12], 0
$LN4@emovcurx:
; Line 201
	jmp	SHORT $LN3@emovcurx
$LN2@emovcurx:
; Line 202
	mov	eax, DWORD PTR mov$[rsp]
	mov	ecx, DWORD PTR cur$[rsp+12]
	add	ecx, eax
	mov	eax, ecx
	test	eax, eax
	jge	SHORT $LN5@emovcurx
; Line 204
	mov	eax, DWORD PTR cur$[rsp+16]
	dec	eax
	test	eax, eax
	jl	SHORT $LN7@emovcurx
; Line 206
	mov	eax, DWORD PTR cur$[rsp+16]
	dec	eax
	mov	DWORD PTR cur$[rsp+16], eax
; Line 207
	mov	edx, DWORD PTR cur$[rsp+16]
	mov	rcx, QWORD PTR wdg$[rsp]
	call	egetlen
	mov	DWORD PTR cur$[rsp+12], eax
$LN7@emovcurx:
; Line 209
	jmp	SHORT $LN6@emovcurx
$LN5@emovcurx:
; Line 211
	mov	eax, DWORD PTR mov$[rsp]
	mov	ecx, DWORD PTR cur$[rsp+12]
	add	ecx, eax
	mov	eax, ecx
	mov	DWORD PTR cur$[rsp+12], eax
$LN6@emovcurx:
$LN3@emovcurx:
; Line 214
	lea	rax, QWORD PTR $T1[rsp]
	lea	rcx, QWORD PTR cur$[rsp]
	mov	rdi, rax
	mov	rsi, rcx
	mov	ecx, 20
	rep movsb
	lea	rdx, QWORD PTR $T1[rsp]
	mov	rcx, QWORD PTR wdg$[rsp]
	call	esetcur
; Line 215
	mov	rcx, QWORD PTR __$ArrayPad$[rsp]
	xor	rcx, rsp
	call	__security_check_cookie
	add	rsp, 152				; 00000098H
	pop	rdi
	pop	rsi
	ret	0
emovcurx ENDP
_TEXT	ENDS
; Function compile flags: /Odtp
_TEXT	SEGMENT
ycur$ = 48
xcur$ = 52
$T1 = 56
__$ReturnAddress$ = 112
widget$ = 120
rect$ = 128
currec	PROC
; File W:\cpp\void\e\e.h
; Line 175
$LN3:
	mov	QWORD PTR [rsp+24], r8
	mov	QWORD PTR [rsp+16], rdx
	mov	QWORD PTR [rsp+8], rcx
	push	rsi
	push	rdi
	sub	rsp, 88					; 00000058H
; Line 176
	mov	rax, QWORD PTR widget$[rsp]
	mov	eax, DWORD PTR [rax+32]
	mov	DWORD PTR xcur$[rsp], eax
; Line 177
	mov	rax, QWORD PTR widget$[rsp]
	mov	eax, DWORD PTR [rax+36]
	mov	DWORD PTR ycur$[rsp], eax
; Line 179
	mov	rax, QWORD PTR widget$[rsp]
	mov	eax, DWORD PTR [rax+40]
	mov	ecx, DWORD PTR ycur$[rsp]
	sub	ecx, eax
	mov	eax, ecx
	mov	DWORD PTR ycur$[rsp], eax
; Line 181
	imul	eax, DWORD PTR ycur$[rsp], 32		; 00000020H
	mov	DWORD PTR ycur$[rsp], eax
; Line 182
	mov	ecx, 32					; 00000020H
	call	rxchrxsz
	cvtsi2ss xmm1, DWORD PTR xcur$[rsp]
	mulss	xmm1, xmm0
	movaps	xmm0, xmm1
	cvttss2si eax, xmm0
	mov	DWORD PTR xcur$[rsp], eax
; Line 183
	mov	rax, QWORD PTR rect$[rsp]
	mov	ecx, DWORD PTR ycur$[rsp]
	mov	eax, DWORD PTR [rax+12]
	sub	eax, ecx
	sub	eax, 32					; 00000020H
	mov	rcx, QWORD PTR rect$[rsp]
	mov	ecx, DWORD PTR [rcx]
	add	ecx, DWORD PTR xcur$[rsp]
	mov	DWORD PTR [rsp+32], 32			; 00000020H
	mov	r9d, 16
	mov	r8d, eax
	mov	edx, ecx
	lea	rcx, QWORD PTR $T1[rsp]
	call	rect_by_size
	mov	rdi, QWORD PTR __$ReturnAddress$[rsp]
	mov	rsi, rax
	mov	ecx, 16
	rep movsb
	mov	rax, QWORD PTR __$ReturnAddress$[rsp]
; Line 184
	add	rsp, 88					; 00000058H
	pop	rdi
	pop	rsi
	ret	0
currec	ENDP
_TEXT	ENDS
; Function compile flags: /Odtp
_TEXT	SEGMENT
tv64 = 32
wdg$ = 64
ecurloc	PROC
; File W:\cpp\void\e\e.h
; Line 166
$LN3:
	mov	QWORD PTR [rsp+8], rcx
	sub	rsp, 56					; 00000038H
; Line 167
	mov	rcx, QWORD PTR wdg$[rsp]
	call	egetcury
	mov	edx, eax
	mov	rcx, QWORD PTR wdg$[rsp]
	call	egetoff
	mov	DWORD PTR tv64[rsp], eax
	mov	rcx, QWORD PTR wdg$[rsp]
	call	egetcurx
	mov	ecx, DWORD PTR tv64[rsp]
	add	ecx, eax
	mov	eax, ecx
; Line 168
	add	rsp, 56					; 00000038H
	ret	0
ecurloc	ENDP
_TEXT	ENDS
; Function compile flags: /Odtp
_TEXT	SEGMENT
$T1 = 32
wdg$ = 80
egetcury PROC
; File W:\cpp\void\e\e.h
; Line 159
$LN3:
	mov	QWORD PTR [rsp+8], rcx
	sub	rsp, 72					; 00000048H
; Line 160
	mov	rdx, QWORD PTR wdg$[rsp]
	lea	rcx, QWORD PTR $T1[rsp]
	call	egetcur
	mov	eax, DWORD PTR [rax+16]
; Line 161
	add	rsp, 72					; 00000048H
	ret	0
egetcury ENDP
_TEXT	ENDS
; Function compile flags: /Odtp
_TEXT	SEGMENT
$T1 = 32
wdg$ = 80
egetcurx PROC
; File W:\cpp\void\e\e.h
; Line 152
$LN3:
	mov	QWORD PTR [rsp+8], rcx
	sub	rsp, 72					; 00000048H
; Line 153
	mov	rdx, QWORD PTR wdg$[rsp]
	lea	rcx, QWORD PTR $T1[rsp]
	call	egetcur
	mov	eax, DWORD PTR [rax+12]
; Line 154
	add	rsp, 72					; 00000048H
	ret	0
egetcurx ENDP
_TEXT	ENDS
; Function compile flags: /Odtp
_TEXT	SEGMENT
__$ReturnAddress$ = 24
wdg$ = 32
egetcur	PROC
; File W:\cpp\void\e\e.h
; Line 145
$LN3:
	mov	QWORD PTR [rsp+16], rdx
	mov	QWORD PTR [rsp+8], rcx
	push	rsi
	push	rdi
; Line 146
	mov	rax, QWORD PTR wdg$[rsp]
	mov	rdi, QWORD PTR __$ReturnAddress$[rsp]
	lea	rsi, QWORD PTR [rax+20]
	mov	ecx, 20
	rep movsb
	mov	rax, QWORD PTR __$ReturnAddress$[rsp]
; Line 147
	pop	rdi
	pop	rsi
	ret	0
egetcur	ENDP
_TEXT	ENDS
; Function compile flags: /Odtp
_TEXT	SEGMENT
wdg$ = 24
cur$ = 32
esetcur	PROC
; File W:\cpp\void\e\e.h
; Line 138
$LN3:
	mov	QWORD PTR [rsp+16], rdx
	mov	QWORD PTR [rsp+8], rcx
	push	rsi
	push	rdi
; Line 139
	mov	rax, QWORD PTR wdg$[rsp]
	lea	rdi, QWORD PTR [rax+20]
	mov	rsi, QWORD PTR cur$[rsp]
	mov	ecx, 20
	rep movsb
; Line 140
	pop	rdi
	pop	rsi
	ret	0
esetcur	ENDP
_TEXT	ENDS
; Function compile flags: /Odtp
_TEXT	SEGMENT
$T1 = 32
wdg$ = 64
index$ = 72
egetoff	PROC
; File W:\cpp\void\e\e.h
; Line 132
$LN3:
	mov	DWORD PTR [rsp+16], edx
	mov	QWORD PTR [rsp+8], rcx
	sub	rsp, 56					; 00000038H
; Line 133
	mov	edx, DWORD PTR index$[rsp]
	mov	rcx, QWORD PTR wdg$[rsp]
	call	egetrow
	mov	QWORD PTR $T1[rsp], rax
	mov	eax, DWORD PTR $T1[rsp]
; Line 134
	add	rsp, 56					; 00000038H
	ret	0
egetoff	ENDP
_TEXT	ENDS
; Function compile flags: /Odtp
_TEXT	SEGMENT
$T1 = 32
wdg$ = 64
index$ = 72
egetlen	PROC
; File W:\cpp\void\e\e.h
; Line 124
$LN3:
	mov	DWORD PTR [rsp+16], edx
	mov	QWORD PTR [rsp+8], rcx
	sub	rsp, 56					; 00000038H
; Line 125
	mov	edx, DWORD PTR index$[rsp]
	mov	rcx, QWORD PTR wdg$[rsp]
	call	egetrow
	mov	QWORD PTR $T1[rsp], rax
	mov	eax, DWORD PTR $T1[rsp+4]
; Line 126
	add	rsp, 56					; 00000038H
	ret	0
egetlen	ENDP
_TEXT	ENDS
; Function compile flags: /Odtp
_TEXT	SEGMENT
wdg$ = 8
index$ = 16
egetrow	PROC
; File W:\cpp\void\e\e.h
; Line 116
	mov	DWORD PTR [rsp+16], edx
	mov	QWORD PTR [rsp+8], rcx
; Line 117
	movsxd	rax, DWORD PTR index$[rsp]
	mov	rcx, QWORD PTR wdg$[rsp]
	mov	rcx, QWORD PTR [rcx+48]
	mov	rax, QWORD PTR [rcx+rax*8]
; Line 118
	ret	0
egetrow	ENDP
_TEXT	ENDS
; Function compile flags: /Odtp
_TEXT	SEGMENT
widget$ = 8
buflen	PROC
; File W:\cpp\void\e\e.h
; Line 108
	mov	QWORD PTR [rsp+8], rcx
; Line 109
	mov	rax, QWORD PTR widget$[rsp]
	mov	eax, DWORD PTR [rax+64]
; Line 110
	ret	0
buflen	ENDP
_TEXT	ENDS
; Function compile flags: /Odtp
_TEXT	SEGMENT
cursor$ = 32
line$1 = 40
tv68 = 48
widget$ = 80
length$ = 88
buffer$ = 96
erecache PROC
; File W:\cpp\void\e\e.h
; Line 62
$LN15:
	mov	QWORD PTR [rsp+24], r8
	mov	DWORD PTR [rsp+16], edx
	mov	QWORD PTR [rsp+8], rcx
	sub	rsp, 72					; 00000048H
; Line 63
	mov	rax, QWORD PTR buffer$[rsp]
	mov	QWORD PTR cursor$[rsp], rax
; Line 65
	mov	rax, QWORD PTR widget$[rsp]
	cmp	QWORD PTR [rax+48], 0
	je	SHORT $LN12@erecache
	mov	rax, QWORD PTR widget$[rsp]
	mov	rax, QWORD PTR [rax+48]
	sub	rax, 40					; 00000028H
	mov	QWORD PTR tv68[rsp], rax
	jmp	SHORT $LN13@erecache
$LN12@erecache:
	mov	QWORD PTR tv68[rsp], 0
$LN13@erecache:
	mov	rcx, QWORD PTR tv68[rsp]
	call	ccdlbdel_
; Line 66
	mov	rax, QWORD PTR widget$[rsp]
	mov	QWORD PTR [rax+48], 0
$LN14@erecache:
$retry$16:
; Line 69
	movsxd	rax, DWORD PTR length$[rsp]
	mov	rcx, QWORD PTR buffer$[rsp]
	add	rcx, rax
	mov	rax, rcx
	cmp	QWORD PTR cursor$[rsp], rax
	jae	$LN4@erecache
; Line 75
	mov	rax, QWORD PTR widget$[rsp]
	add	rax, 48					; 00000030H
	mov	r9d, 1
	mov	r8d, 1
	mov	edx, 8
	mov	rcx, rax
	call	ccdlbadd_
	mov	rcx, QWORD PTR widget$[rsp]
	mov	rcx, QWORD PTR [rcx+48]
	lea	rax, QWORD PTR [rcx+rax*8]
	mov	QWORD PTR line$1[rsp], rax
; Line 76
	mov	rax, QWORD PTR buffer$[rsp]
	mov	rcx, QWORD PTR cursor$[rsp]
	sub	rcx, rax
	mov	rax, rcx
	mov	rcx, QWORD PTR line$1[rsp]
	mov	DWORD PTR [rcx], eax
; Line 77
	mov	rax, QWORD PTR line$1[rsp]
	mov	DWORD PTR [rax+4], 0
$LN2@erecache:
; Line 79
	movsxd	rax, DWORD PTR length$[rsp]
	mov	rcx, QWORD PTR buffer$[rsp]
	add	rcx, rax
	mov	rax, rcx
	cmp	QWORD PTR cursor$[rsp], rax
	jae	$LN3@erecache
; Line 81
	mov	rax, QWORD PTR cursor$[rsp]
	movsx	eax, BYTE PTR [rax]
	cmp	eax, 10
	jne	SHORT $LN5@erecache
; Line 82
	mov	rax, QWORD PTR cursor$[rsp]
	inc	rax
	mov	QWORD PTR cursor$[rsp], rax
; Line 84
	mov	rax, QWORD PTR cursor$[rsp]
	movsx	eax, BYTE PTR [rax]
	cmp	eax, 13
	jne	SHORT $LN7@erecache
; Line 85
	mov	rax, QWORD PTR cursor$[rsp]
	inc	rax
	mov	QWORD PTR cursor$[rsp], rax
$LN7@erecache:
; Line 87
	jmp	$retry$16
; Line 88
	jmp	SHORT $LN6@erecache
$LN5@erecache:
; Line 89
	mov	rax, QWORD PTR cursor$[rsp]
	movsx	eax, BYTE PTR [rax]
	cmp	eax, 13
	jne	SHORT $LN8@erecache
; Line 90
	mov	rax, QWORD PTR cursor$[rsp]
	inc	rax
	mov	QWORD PTR cursor$[rsp], rax
; Line 92
	mov	rax, QWORD PTR cursor$[rsp]
	movsx	eax, BYTE PTR [rax]
	cmp	eax, 10
	jne	SHORT $LN10@erecache
; Line 93
	mov	rax, QWORD PTR cursor$[rsp]
	inc	rax
	mov	QWORD PTR cursor$[rsp], rax
$LN10@erecache:
; Line 95
	jmp	$LN14@erecache
; Line 96
	jmp	SHORT $LN9@erecache
$LN8@erecache:
; Line 98
	mov	rax, QWORD PTR cursor$[rsp]
	inc	rax
	mov	QWORD PTR cursor$[rsp], rax
; Line 99
	mov	rax, QWORD PTR line$1[rsp]
	mov	eax, DWORD PTR [rax+4]
	inc	eax
	mov	rcx, QWORD PTR line$1[rsp]
	mov	DWORD PTR [rcx+4], eax
$LN9@erecache:
$LN6@erecache:
; Line 101
	jmp	$LN2@erecache
$LN3@erecache:
$LN4@erecache:
; Line 103
	add	rsp, 72					; 00000048H
	ret	0
erecache ENDP
_TEXT	ENDS
; Function compile flags: /Odtp
_TEXT	SEGMENT
tv80 = 32
tv76 = 36
tv86 = 40
tv128 = 44
yscroll$ = 48
result$ = 52
mouse_poll PROC
; File W:\cpp\void\e\mouse.cc
; Line 68
$LN14:
	sub	rsp, 72					; 00000048H
; Line 69
	mov	eax, 36					; 00000024H
	imul	rax, rax, 0
	lea	rcx, OFFSET FLAT:rx+48
	mov	edx, 36					; 00000024H
	imul	rdx, rdx, 0
	lea	r8, OFFSET FLAT:rx+48
	mov	eax, DWORD PTR [rcx+rax+8]
	mov	DWORD PTR [r8+rdx+4], eax
; Line 70
	mov	ecx, 12
	call	rxtstkey
	test	eax, eax
	je	SHORT $LN6@mouse_poll
	mov	DWORD PTR tv76[rsp], 1
	jmp	SHORT $LN7@mouse_poll
$LN6@mouse_poll:
	mov	DWORD PTR tv76[rsp], 0
$LN7@mouse_poll:
	mov	ecx, 13
	call	rxtstkey
	test	eax, eax
	je	SHORT $LN8@mouse_poll
	mov	DWORD PTR tv80[rsp], 1
	jmp	SHORT $LN9@mouse_poll
$LN8@mouse_poll:
	mov	DWORD PTR tv80[rsp], 0
$LN9@mouse_poll:
	mov	ecx, 14
	call	rxtstkey
	test	eax, eax
	je	SHORT $LN10@mouse_poll
	mov	DWORD PTR tv86[rsp], 1
	jmp	SHORT $LN11@mouse_poll
$LN10@mouse_poll:
	mov	DWORD PTR tv86[rsp], 0
$LN11@mouse_poll:
	mov	eax, DWORD PTR tv80[rsp]
	shl	eax, 1
	mov	ecx, DWORD PTR tv76[rsp]
	or	ecx, eax
	mov	eax, ecx
	mov	ecx, DWORD PTR tv86[rsp]
	shl	ecx, 2
	or	eax, ecx
	mov	ecx, 36					; 00000024H
	imul	rcx, rcx, 0
	lea	rdx, OFFSET FLAT:rx+48
	mov	DWORD PTR [rdx+rcx+8], eax
; Line 75
	mov	eax, 36					; 00000024H
	imul	rax, rax, 0
	lea	rcx, OFFSET FLAT:rx+48
	mov	edx, 36					; 00000024H
	imul	rdx, rdx, 0
	lea	r8, OFFSET FLAT:rx+48
	mov	edx, DWORD PTR [r8+rdx+8]
	cmp	DWORD PTR [rcx+rax+4], edx
	je	SHORT $LN12@mouse_poll
	mov	DWORD PTR tv128[rsp], 1
	jmp	SHORT $LN13@mouse_poll
$LN12@mouse_poll:
	mov	DWORD PTR tv128[rsp], 0
$LN13@mouse_poll:
	mov	eax, DWORD PTR tv128[rsp]
	mov	DWORD PTR result$[rsp], eax
; Line 78
	xor	ecx, ecx
	call	is_click_enter
	test	eax, eax
	je	SHORT $LN2@mouse_poll
; Line 80
	mov	eax, 36					; 00000024H
	imul	rax, rax, 0
	lea	rcx, OFFSET FLAT:rx+48
	mov	edx, DWORD PTR rx+40
	mov	DWORD PTR [rcx+rax+12], edx
; Line 81
	mov	eax, 36					; 00000024H
	imul	rax, rax, 0
	lea	rcx, OFFSET FLAT:rx+48
	mov	edx, DWORD PTR rx+44
	mov	DWORD PTR [rcx+rax+16], edx
$LN2@mouse_poll:
; Line 84
	mov	ecx, 15
	call	rxtstkey
	mov	DWORD PTR yscroll$[rsp], eax
; Line 86
	mov	eax, 36					; 00000024H
	imul	rax, rax, 0
	lea	rcx, OFFSET FLAT:rx+48
	mov	edx, DWORD PTR yscroll$[rsp]
	cmp	DWORD PTR [rcx+rax+20], edx
	je	SHORT $LN3@mouse_poll
; Line 88
	mov	eax, 36					; 00000024H
	imul	rax, rax, 0
	lea	rcx, OFFSET FLAT:rx+48
	mov	edx, DWORD PTR yscroll$[rsp]
	mov	DWORD PTR [rcx+rax+20], edx
; Line 89
	jmp	SHORT $LN4@mouse_poll
$LN3@mouse_poll:
; Line 91
	mov	eax, 36					; 00000024H
	imul	rax, rax, 0
	lea	rcx, OFFSET FLAT:rx+48
	mov	DWORD PTR [rcx+rax+20], 0
$LN4@mouse_poll:
; Line 94
	mov	eax, DWORD PTR result$[rsp]
; Line 95
	add	rsp, 72					; 00000048H
	ret	0
mouse_poll ENDP
_TEXT	ENDS
; Function compile flags: /Odtp
_TEXT	SEGMENT
tv76 = 0
tv77 = 8
tv78 = 16
x$ = 48
is_click_leave PROC
; File W:\cpp\void\e\mouse.cc
; Line 47
$LN5:
	mov	DWORD PTR [rsp+8], ecx
	sub	rsp, 40					; 00000028H
	mov	eax, 36					; 00000024H
	imul	rax, rax, 0
	lea	rcx, OFFSET FLAT:rx+48
	mov	QWORD PTR tv77[rsp], rcx
	mov	edx, DWORD PTR x$[rsp]
	mov	r8d, 1
	movzx	ecx, dl
	mov	edx, r8d
	shl	edx, cl
	mov	ecx, edx
	mov	rdx, QWORD PTR tv77[rsp]
	mov	eax, DWORD PTR [rdx+rax+8]
	and	eax, ecx
	test	eax, eax
	jne	SHORT $LN3@is_click_l
	mov	eax, 36					; 00000024H
	imul	rax, rax, 0
	lea	rcx, OFFSET FLAT:rx+48
	mov	QWORD PTR tv78[rsp], rcx
	mov	edx, DWORD PTR x$[rsp]
	mov	r8d, 1
	movzx	ecx, dl
	mov	edx, r8d
	shl	edx, cl
	mov	ecx, edx
	mov	rdx, QWORD PTR tv78[rsp]
	mov	eax, DWORD PTR [rdx+rax+4]
	and	eax, ecx
	test	eax, eax
	je	SHORT $LN3@is_click_l
	mov	DWORD PTR tv76[rsp], 1
	jmp	SHORT $LN4@is_click_l
$LN3@is_click_l:
	mov	DWORD PTR tv76[rsp], 0
$LN4@is_click_l:
	mov	eax, DWORD PTR tv76[rsp]
	add	rsp, 40					; 00000028H
	ret	0
is_click_leave ENDP
_TEXT	ENDS
; Function compile flags: /Odtp
_TEXT	SEGMENT
the_thumb_offset$ = 48
tv136 = 52
is_active$ = 56
tv75 = 64
tv148 = 72
$T1 = 80
$T2 = 96
$T3 = 112
$T4 = 128
$T5 = 144
$T6 = 160
$T7 = 176
$T8 = 192
the_inner_rect$ = 208
$S33$ = 224
$S34$ = 240
the_thumb_rect$ = 256
__$ArrayPad$ = 272
rect$ = 320
label$ = 328
min$ = 336
max$ = 344
value$ = 352
slider_widget PROC
; File W:\cpp\void\e\rect.cc
; Line 305
$LN6:
	movsd	QWORD PTR [rsp+32], xmm3
	movsd	QWORD PTR [rsp+24], xmm2
	mov	QWORD PTR [rsp+16], rdx
	mov	QWORD PTR [rsp+8], rcx
	push	rsi
	push	rdi
	sub	rsp, 296				; 00000128H
	mov	rax, QWORD PTR __security_cookie
	xor	rax, rsp
	mov	QWORD PTR __$ArrayPad$[rsp], rax
; Line 306
	movss	xmm0, DWORD PTR __real@3d909091
	movss	DWORD PTR $S33$[rsp], xmm0
	movss	xmm0, DWORD PTR __real@3d909091
	movss	DWORD PTR $S33$[rsp+4], xmm0
	movss	xmm0, DWORD PTR __real@3d909091
	movss	DWORD PTR $S33$[rsp+8], xmm0
	movss	xmm0, DWORD PTR __real@3f800000
	movss	DWORD PTR $S33$[rsp+12], xmm0
	lea	rax, QWORD PTR $T1[rsp]
	lea	rcx, QWORD PTR $S33$[rsp]
	mov	rdi, rax
	mov	rsi, rcx
	mov	ecx, 16
	rep movsb
	lea	rax, QWORD PTR $T2[rsp]
	mov	rdi, rax
	mov	rsi, QWORD PTR rect$[rsp]
	mov	ecx, 16
	rep movsb
	lea	rdx, QWORD PTR $T1[rsp]
	lea	rcx, QWORD PTR $T2[rsp]
	call	draw_rect
; Line 308
	lea	rax, QWORD PTR $T3[rsp]
	mov	rdi, rax
	mov	rsi, QWORD PTR rect$[rsp]
	mov	ecx, 16
	rep movsb
	mov	r9d, 4
	mov	r8d, 4
	lea	rdx, QWORD PTR $T3[rsp]
	lea	rcx, QWORD PTR $T7[rsp]
	call	rect_padd
	lea	rcx, QWORD PTR the_inner_rect$[rsp]
	mov	rdi, rcx
	mov	rsi, rax
	mov	ecx, 16
	rep movsb
; Line 310
	mov	eax, DWORD PTR the_inner_rect$[rsp]
	mov	ecx, DWORD PTR the_inner_rect$[rsp+8]
	sub	ecx, eax
	mov	eax, ecx
	sub	eax, 16
	cvtsi2sd xmm0, eax
	movsd	QWORD PTR tv75[rsp], xmm0
	movsd	xmm2, QWORD PTR max$[rsp]
	movsd	xmm1, QWORD PTR min$[rsp]
	mov	rax, QWORD PTR value$[rsp]
	movsd	xmm0, QWORD PTR [rax]
	call	rxclamp
	movsd	xmm1, QWORD PTR tv75[rsp]
	movsd	QWORD PTR [rsp+32], xmm1
